
test_main.elf:     file format elf32-v850-rh850


Disassembly of section .vector:

00000000 <__reset>:
   0:	80 07 d0 07 	jr	7d0 <__text>
	...
  10:	80 07 68 08 	jr	878 <_default_int_handler>
	...
  20:	80 07 58 08 	jr	878 <_default_int_handler>
	...
  40:	80 07 38 08 	jr	878 <_default_int_handler>
	...
  50:	80 07 28 08 	jr	878 <_default_int_handler>
	...
  60:	80 07 18 08 	jr	878 <_default_int_handler>
	...
  80:	80 07 f8 07 	jr	878 <_default_int_handler>
	...
  90:	80 07 e8 07 	jr	878 <_default_int_handler>
	...
  a0:	80 07 d8 07 	jr	878 <_default_int_handler>
	...
  b0:	80 07 c8 07 	jr	878 <_default_int_handler>
	...
  c0:	80 07 b8 07 	jr	878 <_default_int_handler>
	...
  d0:	80 07 a8 07 	jr	878 <_default_int_handler>
	...
  e0:	80 07 98 07 	jr	878 <_default_int_handler>
	...
  f0:	80 07 88 07 	jr	878 <_default_int_handler>
	...
 100:	80 07 78 07 	jr	878 <_default_int_handler>
	...
 110:	80 07 68 07 	jr	878 <_default_int_handler>
	...
 120:	80 07 58 07 	jr	878 <_default_int_handler>
	...
 130:	80 07 48 07 	jr	878 <_default_int_handler>
	...
 140:	80 07 38 07 	jr	878 <_default_int_handler>
	...
 150:	80 07 28 07 	jr	878 <_default_int_handler>
	...
 160:	80 07 18 07 	jr	878 <_default_int_handler>
	...
 170:	80 07 08 07 	jr	878 <_default_int_handler>
	...
 180:	80 07 f8 06 	jr	878 <_default_int_handler>
	...
 190:	80 07 e8 06 	jr	878 <_default_int_handler>
	...
 1a0:	80 07 d8 06 	jr	878 <_default_int_handler>
	...
 1b0:	80 07 c8 06 	jr	878 <_default_int_handler>
	...
 1c0:	80 07 b8 06 	jr	878 <_default_int_handler>
	...
 1d0:	80 07 a8 06 	jr	878 <_default_int_handler>
	...
 1e0:	80 07 c0 09 	jr	ba0 <_interrupt>
	...
 1f0:	80 07 88 06 	jr	878 <_default_int_handler>
	...
 200:	80 07 78 06 	jr	878 <_default_int_handler>
	...
 210:	80 07 68 06 	jr	878 <_default_int_handler>
	...
 220:	80 07 58 06 	jr	878 <_default_int_handler>
	...
 230:	80 07 48 06 	jr	878 <_default_int_handler>
	...
 240:	80 07 38 06 	jr	878 <_default_int_handler>
	...
 250:	80 07 28 06 	jr	878 <_default_int_handler>
	...
 260:	80 07 18 06 	jr	878 <_default_int_handler>
	...
 270:	80 07 08 06 	jr	878 <_default_int_handler>
	...
 280:	80 07 f8 05 	jr	878 <_default_int_handler>
	...
 290:	80 07 e8 05 	jr	878 <_default_int_handler>
	...
 2a0:	80 07 d8 05 	jr	878 <_default_int_handler>
	...
 2b0:	80 07 c8 05 	jr	878 <_default_int_handler>
	...
 2c0:	80 07 b8 05 	jr	878 <_default_int_handler>
	...
 2d0:	80 07 a8 05 	jr	878 <_default_int_handler>
	...
 2e0:	80 07 98 05 	jr	878 <_default_int_handler>
	...
 2f0:	80 07 88 05 	jr	878 <_default_int_handler>
	...
 300:	80 07 78 05 	jr	878 <_default_int_handler>
	...
 310:	80 07 68 05 	jr	878 <_default_int_handler>
	...
 320:	80 07 58 05 	jr	878 <_default_int_handler>
	...
 330:	80 07 48 05 	jr	878 <_default_int_handler>
	...
 340:	80 07 38 05 	jr	878 <_default_int_handler>
	...
 350:	80 07 28 05 	jr	878 <_default_int_handler>
	...
 360:	80 07 18 05 	jr	878 <_default_int_handler>
	...
 370:	80 07 08 05 	jr	878 <_default_int_handler>
	...
 380:	80 07 f8 04 	jr	878 <_default_int_handler>
	...
 390:	80 07 e8 04 	jr	878 <_default_int_handler>
	...
 3a0:	80 07 d8 04 	jr	878 <_default_int_handler>
	...
 3b0:	80 07 c8 04 	jr	878 <_default_int_handler>
	...
 3c0:	80 07 b8 04 	jr	878 <_default_int_handler>
	...
 3d0:	80 07 a8 04 	jr	878 <_default_int_handler>
	...
 3e0:	80 07 98 04 	jr	878 <_default_int_handler>
	...
 3f0:	80 07 88 04 	jr	878 <_default_int_handler>
	...
 400:	80 07 78 04 	jr	878 <_default_int_handler>
	...
 410:	80 07 68 04 	jr	878 <_default_int_handler>
	...
 420:	80 07 58 04 	jr	878 <_default_int_handler>
	...
 430:	80 07 48 04 	jr	878 <_default_int_handler>
	...
 440:	80 07 38 04 	jr	878 <_default_int_handler>
	...
 450:	80 07 28 04 	jr	878 <_default_int_handler>
	...
 460:	80 07 18 04 	jr	878 <_default_int_handler>
	...
 470:	80 07 08 04 	jr	878 <_default_int_handler>
	...
 480:	80 07 f8 03 	jr	878 <_default_int_handler>
	...
 490:	80 07 e8 03 	jr	878 <_default_int_handler>
	...
 4a0:	80 07 d8 03 	jr	878 <_default_int_handler>
	...
 4b0:	80 07 c8 03 	jr	878 <_default_int_handler>
	...
 4c0:	80 07 b8 03 	jr	878 <_default_int_handler>
	...
 4d0:	80 07 a8 03 	jr	878 <_default_int_handler>
	...
 4e0:	80 07 98 03 	jr	878 <_default_int_handler>
	...
 4f0:	80 07 88 03 	jr	878 <_default_int_handler>
	...
 500:	80 07 78 03 	jr	878 <_default_int_handler>
	...
 510:	80 07 68 03 	jr	878 <_default_int_handler>
	...
 520:	80 07 58 03 	jr	878 <_default_int_handler>
	...
 530:	80 07 48 03 	jr	878 <_default_int_handler>
	...
 540:	80 07 38 03 	jr	878 <_default_int_handler>
	...
 550:	80 07 28 03 	jr	878 <_default_int_handler>
	...
 560:	80 07 18 03 	jr	878 <_default_int_handler>
	...
 570:	80 07 08 03 	jr	878 <_default_int_handler>
	...
 580:	80 07 f8 02 	jr	878 <_default_int_handler>
	...
 590:	80 07 e8 02 	jr	878 <_default_int_handler>
	...
 5a0:	80 07 d8 02 	jr	878 <_default_int_handler>
	...
 5b0:	80 07 c8 02 	jr	878 <_default_int_handler>
	...
 5c0:	80 07 b8 02 	jr	878 <_default_int_handler>
	...
 5d0:	80 07 a8 02 	jr	878 <_default_int_handler>
	...
 5e0:	80 07 98 02 	jr	878 <_default_int_handler>
	...
 5f0:	80 07 88 02 	jr	878 <_default_int_handler>
	...
 600:	80 07 78 02 	jr	878 <_default_int_handler>
	...
 610:	80 07 68 02 	jr	878 <_default_int_handler>
	...
 620:	80 07 58 02 	jr	878 <_default_int_handler>
	...
 630:	80 07 48 02 	jr	878 <_default_int_handler>
	...
 640:	80 07 38 02 	jr	878 <_default_int_handler>
	...
 650:	80 07 28 02 	jr	878 <_default_int_handler>
	...
 660:	80 07 18 02 	jr	878 <_default_int_handler>
	...
 670:	80 07 08 02 	jr	878 <_default_int_handler>
	...
 680:	80 07 f8 01 	jr	878 <_default_int_handler>
	...
 690:	80 07 e8 01 	jr	878 <_default_int_handler>
	...
 6a0:	80 07 d8 01 	jr	878 <_default_int_handler>
	...
 6b0:	80 07 c8 01 	jr	878 <_default_int_handler>
	...
 6c0:	80 07 b8 01 	jr	878 <_default_int_handler>
	...
 6d0:	80 07 a8 01 	jr	878 <_default_int_handler>
	...
 6e0:	80 07 98 01 	jr	878 <_default_int_handler>
	...
 6f0:	80 07 88 01 	jr	878 <_default_int_handler>
	...
 700:	80 07 78 01 	jr	878 <_default_int_handler>
	...
 710:	80 07 68 01 	jr	878 <_default_int_handler>
	...
 720:	80 07 58 01 	jr	878 <_default_int_handler>
	...
 730:	80 07 48 01 	jr	878 <_default_int_handler>
	...
 740:	80 07 38 01 	jr	878 <_default_int_handler>
	...
 750:	80 07 28 01 	jr	878 <_default_int_handler>
	...
 760:	80 07 18 01 	jr	878 <_default_int_handler>
	...
 770:	80 07 08 01 	jr	878 <_default_int_handler>
	...
 780:	80 07 f8 00 	jr	878 <_default_int_handler>
	...
 790:	80 07 e8 00 	jr	878 <_default_int_handler>
	...
 7a0:	80 07 d8 00 	jr	878 <_default_int_handler>
	...
 7b0:	80 07 c8 00 	jr	878 <_default_int_handler>
	...
 7c0:	80 07 b8 00 	jr	878 <_default_int_handler>
	...

Disassembly of section .text:

000007d0 <__text>:
     7d0:	e0 07 60 01 	di	
     7d4:	40 1e ff 06 	movhi	1791, r0, sp
     7d8:	23 1e 88 70 	movea	28808, sp, sp
     7dc:	03 1e 00 04 	addi	1024, sp, sp
     7e0:	80 ff 8c 0a 	jarl	126c <_bss_clear>, lp
     7e4:	80 ff d2 0a 	jarl	12b6 <_data_init>, lp
     7e8:	e0 87 60 01 	ei	
     7ec:	80 ff 20 08 	jarl	100c <_main>, lp
     7f0:	e0 07 20 01 	halt	
	...

00000800 <_disable_int_all>:
     800:	5c 1a       	add	-4, sp
     802:	63 ef 01 00 	st.w	r29, 0[sp]
     806:	03 e8       	mov	sp, r29
     808:	e0 07 60 01 	di	
     80c:	1d 18       	mov	r29, sp
     80e:	23 ef 01 00 	ld.w	0[sp], r29
     812:	44 1a       	add	4, sp
     814:	7f 00       	jmp	[lp]

00000816 <_enable_int_all>:
     816:	5c 1a       	add	-4, sp
     818:	63 ef 01 00 	st.w	r29, 0[sp]
     81c:	03 e8       	mov	sp, r29
     81e:	e0 87 60 01 	ei	
     822:	1d 18       	mov	r29, sp
     824:	23 ef 01 00 	ld.w	0[sp], r29
     828:	44 1a       	add	4, sp
     82a:	7f 00       	jmp	[lp]

0000082c <_sil_wrb_mem>:
     82c:	5c 1a       	add	-4, sp
     82e:	63 ef 01 00 	st.w	r29, 0[sp]
     832:	58 1a       	add	-8, sp
     834:	03 e8       	mov	sp, r29
     836:	7d 37 05 00 	st.w	r6, 4[r29]
     83a:	07 50       	mov	r7, r10
     83c:	5d 57 00 00 	st.b	r10, 0[r29]
     840:	3d 57 05 00 	ld.w	4[r29], r10
     844:	1d 5f 00 00 	ld.b	0[r29], r11
     848:	4a 5f 00 00 	st.b	r11, 0[r10]
     84c:	00 00       	nop	
     84e:	1d 18       	mov	r29, sp
     850:	23 ef 09 00 	ld.w	8[sp], r29
     854:	4c 1a       	add	12, sp
     856:	7f 00       	jmp	[lp]

00000858 <_sil_reb_mem>:
     858:	5c 1a       	add	-4, sp
     85a:	63 ef 01 00 	st.w	r29, 0[sp]
     85e:	5c 1a       	add	-4, sp
     860:	03 e8       	mov	sp, r29
     862:	7d 37 01 00 	st.w	r6, 0[r29]
     866:	3d 57 01 00 	ld.w	0[r29], r10
     86a:	8a 57 01 00 	ld.bu	0[r10], r10
     86e:	1d 18       	mov	r29, sp
     870:	23 ef 05 00 	ld.w	4[sp], r29
     874:	48 1a       	add	8, sp
     876:	7f 00       	jmp	[lp]

00000878 <_default_int_handler>:
     878:	5c 1a       	add	-4, sp
     87a:	63 ef 01 00 	st.w	r29, 0[sp]
     87e:	03 e8       	mov	sp, r29
     880:	00 00       	nop	
     882:	1d 18       	mov	r29, sp
     884:	23 ef 01 00 	ld.w	0[sp], r29
     888:	44 1a       	add	4, sp
     88a:	7f 00       	jmp	[lp]

0000088c <_x_enable_int>:
     88c:	54 1a       	add	-12, sp
     88e:	63 ff 09 00 	st.w	lp, 8[sp]
     892:	63 e7 05 00 	st.w	r28, 4[sp]
     896:	63 ef 01 00 	st.w	r29, 0[sp]
     89a:	58 1a       	add	-8, sp
     89c:	03 e8       	mov	sp, r29
     89e:	7d 37 01 00 	st.w	r6, 0[r29]
     8a2:	3d 57 01 00 	ld.w	0[r29], r10
     8a6:	2b 06 88 f8 	mov	0x7ffff888, r11
     8aa:	ff 7f 
     8ac:	cb 51       	add	r11, r10
     8ae:	ca 51       	add	r10, r10
     8b0:	7d 57 05 00 	st.w	r10, 4[r29]
     8b4:	3d e7 05 00 	ld.w	4[r29], r28
     8b8:	3d 57 05 00 	ld.w	4[r29], r10
     8bc:	0a 30       	mov	r10, r6
     8be:	2a 06 58 08 	mov	0x858, r10
     8c2:	00 00 
     8c4:	80 ff 04 00 	jarl	8c8 <_x_enable_int+0x3c>, lp
     8c8:	44 fa       	add	4, lp
     8ca:	6a 00       	jmp	[r10]
     8cc:	8a 00       	zxb	r10
     8ce:	ca 56 bf 00 	andi	191, r10, r10
     8d2:	1c 30       	mov	r28, r6
     8d4:	0a 38       	mov	r10, r7
     8d6:	2a 06 2c 08 	mov	0x82c, r10
     8da:	00 00 
     8dc:	80 ff 04 00 	jarl	8e0 <_x_enable_int+0x54>, lp
     8e0:	44 fa       	add	4, lp
     8e2:	6a 00       	jmp	[r10]
     8e4:	00 00       	nop	
     8e6:	1d 18       	mov	r29, sp
     8e8:	23 ff 11 00 	ld.w	16[sp], lp
     8ec:	23 e7 0d 00 	ld.w	12[sp], r28
     8f0:	23 ef 09 00 	ld.w	8[sp], r29
     8f4:	03 1e 14 00 	addi	20, sp, sp
     8f8:	7f 00       	jmp	[lp]

000008fa <_x_clear_int>:
     8fa:	54 1a       	add	-12, sp
     8fc:	63 ff 09 00 	st.w	lp, 8[sp]
     900:	63 e7 05 00 	st.w	r28, 4[sp]
     904:	63 ef 01 00 	st.w	r29, 0[sp]
     908:	58 1a       	add	-8, sp
     90a:	03 e8       	mov	sp, r29
     90c:	7d 37 01 00 	st.w	r6, 0[r29]
     910:	3d 57 01 00 	ld.w	0[r29], r10
     914:	2b 06 88 f8 	mov	0x7ffff888, r11
     918:	ff 7f 
     91a:	cb 51       	add	r11, r10
     91c:	ca 51       	add	r10, r10
     91e:	7d 57 05 00 	st.w	r10, 4[r29]
     922:	3d e7 05 00 	ld.w	4[r29], r28
     926:	3d 57 05 00 	ld.w	4[r29], r10
     92a:	0a 30       	mov	r10, r6
     92c:	2a 06 58 08 	mov	0x858, r10
     930:	00 00 
     932:	80 ff 04 00 	jarl	936 <_x_clear_int+0x3c>, lp
     936:	44 fa       	add	4, lp
     938:	6a 00       	jmp	[r10]
     93a:	8a 00       	zxb	r10
     93c:	ca 56 7f 00 	andi	127, r10, r10
     940:	1c 30       	mov	r28, r6
     942:	0a 38       	mov	r10, r7
     944:	2a 06 2c 08 	mov	0x82c, r10
     948:	00 00 
     94a:	80 ff 04 00 	jarl	94e <_x_clear_int+0x54>, lp
     94e:	44 fa       	add	4, lp
     950:	6a 00       	jmp	[r10]
     952:	1d 18       	mov	r29, sp
     954:	23 ff 11 00 	ld.w	16[sp], lp
     958:	23 e7 0d 00 	ld.w	12[sp], r28
     95c:	23 ef 09 00 	ld.w	8[sp], r29
     960:	03 1e 14 00 	addi	20, sp, sp
     964:	7f 00       	jmp	[lp]

00000966 <_interrupt_handler>:
     966:	58 1a       	add	-8, sp
     968:	63 ff 05 00 	st.w	lp, 4[sp]
     96c:	63 ef 01 00 	st.w	r29, 0[sp]
     970:	58 1a       	add	-8, sp
     972:	03 e8       	mov	sp, r29
     974:	7d 37 01 00 	st.w	r6, 0[r29]
     978:	3d 57 01 00 	ld.w	0[r29], r10
     97c:	ca 56 ff ff 	andi	65535, r10, r10
     980:	0a 56 80 ff 	addi	-128, r10, r10
     984:	84 52       	shr	4, r10
     986:	7d 57 05 00 	st.w	r10, 4[r29]
     98a:	3d 57 05 00 	ld.w	4[r29], r10
     98e:	0a 30       	mov	r10, r6
     990:	2a 06 fa 08 	mov	0x8fa, r10
     994:	00 00 
     996:	80 ff 04 00 	jarl	99a <_interrupt_handler+0x34>, lp
     99a:	44 fa       	add	4, lp
     99c:	6a 00       	jmp	[r10]
     99e:	2a 06 16 08 	mov	0x816, r10
     9a2:	00 00 
     9a4:	80 ff 04 00 	jarl	9a8 <_interrupt_handler+0x42>, lp
     9a8:	44 fa       	add	4, lp
     9aa:	6a 00       	jmp	[r10]
     9ac:	3d 37 05 00 	ld.w	4[r29], r6
     9b0:	2a 06 84 0a 	mov	0xa84, r10
     9b4:	00 00 
     9b6:	80 ff 04 00 	jarl	9ba <_interrupt_handler+0x54>, lp
     9ba:	44 fa       	add	4, lp
     9bc:	6a 00       	jmp	[r10]
     9be:	2a 06 00 08 	mov	0x800, r10
     9c2:	00 00 
     9c4:	80 ff 04 00 	jarl	9c8 <_interrupt_handler+0x62>, lp
     9c8:	44 fa       	add	4, lp
     9ca:	6a 00       	jmp	[r10]
     9cc:	00 00       	nop	
     9ce:	1d 18       	mov	r29, sp
     9d0:	23 ff 0d 00 	ld.w	12[sp], lp
     9d4:	23 ef 09 00 	ld.w	8[sp], r29
     9d8:	03 1e 10 00 	addi	16, sp, sp
     9dc:	7f 00       	jmp	[lp]

000009de <_disable_int_all>:
     9de:	5c 1a       	add	-4, sp
     9e0:	63 ef 01 00 	st.w	r29, 0[sp]
     9e4:	03 e8       	mov	sp, r29
     9e6:	e0 07 60 01 	di	
     9ea:	1d 18       	mov	r29, sp
     9ec:	23 ef 01 00 	ld.w	0[sp], r29
     9f0:	44 1a       	add	4, sp
     9f2:	7f 00       	jmp	[lp]

000009f4 <_enable_int_all>:
     9f4:	5c 1a       	add	-4, sp
     9f6:	63 ef 01 00 	st.w	r29, 0[sp]
     9fa:	03 e8       	mov	sp, r29
     9fc:	e0 87 60 01 	ei	
     a00:	1d 18       	mov	r29, sp
     a02:	23 ef 01 00 	ld.w	0[sp], r29
     a06:	44 1a       	add	4, sp
     a08:	7f 00       	jmp	[lp]

00000a0a <_register_interrupt_handler>:
     a0a:	58 1a       	add	-8, sp
     a0c:	63 ff 05 00 	st.w	lp, 4[sp]
     a10:	63 ef 01 00 	st.w	r29, 0[sp]
     a14:	58 1a       	add	-8, sp
     a16:	03 e8       	mov	sp, r29
     a18:	7d 37 05 00 	st.w	r6, 4[r29]
     a1c:	7d 3f 01 00 	st.w	r7, 0[r29]
     a20:	3d 5f 05 00 	ld.w	4[r29], r11
     a24:	20 56 1d 00 	movea	29, r0, r10
     a28:	ea 59       	cmp	r10, r11
     a2a:	cb 25       	bh	a72 <_register_interrupt_handler+0x68>
     a2c:	2a 06 de 09 	mov	0x9de, r10
     a30:	00 00 
     a32:	80 ff 04 00 	jarl	a36 <_register_interrupt_handler+0x2c>, lp
     a36:	44 fa       	add	4, lp
     a38:	6a 00       	jmp	[r10]
     a3a:	3d 57 05 00 	ld.w	4[r29], r10
     a3e:	0a 30       	mov	r10, r6
     a40:	2a 06 8c 08 	mov	0x88c, r10
     a44:	00 00 
     a46:	80 ff 04 00 	jarl	a4a <_register_interrupt_handler+0x40>, lp
     a4a:	44 fa       	add	4, lp
     a4c:	6a 00       	jmp	[r10]
     a4e:	2b 06 00 70 	mov	0x6ff7000, r11
     a52:	ff 06 
     a54:	3d 57 05 00 	ld.w	4[r29], r10
     a58:	c2 52       	shl	2, r10
     a5a:	cb 51       	add	r11, r10
     a5c:	3d 5f 01 00 	ld.w	0[r29], r11
     a60:	6a 5f 01 00 	st.w	r11, 0[r10]
     a64:	2a 06 f4 09 	mov	0x9f4, r10
     a68:	00 00 
     a6a:	80 ff 04 00 	jarl	a6e <_register_interrupt_handler+0x64>, lp
     a6e:	44 fa       	add	4, lp
     a70:	6a 00       	jmp	[r10]
     a72:	00 00       	nop	
     a74:	1d 18       	mov	r29, sp
     a76:	23 ff 0d 00 	ld.w	12[sp], lp
     a7a:	23 ef 09 00 	ld.w	8[sp], r29
     a7e:	03 1e 10 00 	addi	16, sp, sp
     a82:	7f 00       	jmp	[lp]

00000a84 <_do_interrupt_handler>:
     a84:	58 1a       	add	-8, sp
     a86:	63 ff 05 00 	st.w	lp, 4[sp]
     a8a:	63 ef 01 00 	st.w	r29, 0[sp]
     a8e:	5c 1a       	add	-4, sp
     a90:	03 e8       	mov	sp, r29
     a92:	7d 37 01 00 	st.w	r6, 0[r29]
     a96:	3d 5f 01 00 	ld.w	0[r29], r11
     a9a:	20 56 1d 00 	movea	29, r0, r10
     a9e:	ea 59       	cmp	r10, r11
     aa0:	9b 1d       	bh	ad2 <_do_interrupt_handler+0x4e>
     aa2:	2b 06 00 70 	mov	0x6ff7000, r11
     aa6:	ff 06 
     aa8:	3d 57 01 00 	ld.w	0[r29], r10
     aac:	c2 52       	shl	2, r10
     aae:	cb 51       	add	r11, r10
     ab0:	2a 57 01 00 	ld.w	0[r10], r10
     ab4:	60 52       	cmp	0, r10
     ab6:	e2 0d       	be	ad2 <_do_interrupt_handler+0x4e>
     ab8:	2b 06 00 70 	mov	0x6ff7000, r11
     abc:	ff 06 
     abe:	3d 57 01 00 	ld.w	0[r29], r10
     ac2:	c2 52       	shl	2, r10
     ac4:	cb 51       	add	r11, r10
     ac6:	2a 57 01 00 	ld.w	0[r10], r10
     aca:	80 ff 04 00 	jarl	ace <_do_interrupt_handler+0x4a>, lp
     ace:	44 fa       	add	4, lp
     ad0:	6a 00       	jmp	[r10]
     ad2:	1d 18       	mov	r29, sp
     ad4:	23 ff 09 00 	ld.w	8[sp], lp
     ad8:	23 ef 05 00 	ld.w	4[sp], r29
     adc:	4c 1a       	add	12, sp
     ade:	7f 00       	jmp	[lp]

00000ae0 <_test_print>:
     ae0:	5c 1a       	add	-4, sp
     ae2:	63 ef 01 00 	st.w	r29, 0[sp]
     ae6:	58 1a       	add	-8, sp
     ae8:	03 e8       	mov	sp, r29
     aea:	7d 37 01 00 	st.w	r6, 0[r29]
     aee:	7d 07 05 00 	st.w	r0, 4[r29]
     af2:	c5 15       	br	b1a <_test_print+0x3a>
     af4:	20 56 07 fa 	movea	-1529, r0, r10
     af8:	3d 5f 05 00 	ld.w	4[r29], r11
     afc:	3d 67 01 00 	ld.w	0[r29], r12
     b00:	cc 59       	add	r12, r11
     b02:	0b 5f 00 00 	ld.b	0[r11], r11
     b06:	d8 5a       	shl	24, r11
     b08:	b8 5a       	sar	24, r11
     b0a:	8b 00       	zxb	r11
     b0c:	4a 5f 00 00 	st.b	r11, 0[r10]
     b10:	3d 57 05 00 	ld.w	4[r29], r10
     b14:	41 52       	add	1, r10
     b16:	7d 57 05 00 	st.w	r10, 4[r29]
     b1a:	3d 57 05 00 	ld.w	4[r29], r10
     b1e:	3d 5f 01 00 	ld.w	0[r29], r11
     b22:	cb 51       	add	r11, r10
     b24:	0a 57 00 00 	ld.b	0[r10], r10
     b28:	d8 52       	shl	24, r10
     b2a:	b8 52       	sar	24, r10
     b2c:	60 52       	cmp	0, r10
     b2e:	ba e5       	bne	af4 <_test_print+0x14>
     b30:	1d 18       	mov	r29, sp
     b32:	23 ef 09 00 	ld.w	8[sp], r29
     b36:	4c 1a       	add	12, sp
     b38:	7f 00       	jmp	[lp]

00000b3a <_timer_interrupt_handler>:
     b3a:	58 1a       	add	-8, sp
     b3c:	63 ff 05 00 	st.w	lp, 4[sp]
     b40:	63 ef 01 00 	st.w	r29, 0[sp]
     b44:	03 e8       	mov	sp, r29
     b46:	26 06 30 13 	mov	0x1330, r6
     b4a:	00 00 
     b4c:	2a 06 e0 0a 	mov	0xae0, r10
     b50:	00 00 
     b52:	80 ff 04 00 	jarl	b56 <_timer_interrupt_handler+0x1c>, lp
     b56:	44 fa       	add	4, lp
     b58:	6a 00       	jmp	[r10]
     b5a:	00 00       	nop	
     b5c:	1d 18       	mov	r29, sp
     b5e:	23 ff 05 00 	ld.w	4[sp], lp
     b62:	23 ef 01 00 	ld.w	0[sp], r29
     b66:	48 1a       	add	8, sp
     b68:	7f 00       	jmp	[lp]

00000b6a <_timer_init>:
     b6a:	58 1a       	add	-8, sp
     b6c:	63 ff 05 00 	st.w	lp, 4[sp]
     b70:	63 ef 01 00 	st.w	r29, 0[sp]
     b74:	03 e8       	mov	sp, r29
     b76:	20 36 16 00 	movea	22, r0, r6
     b7a:	27 06 3a 0b 	mov	0xb3a, r7
     b7e:	00 00 
     b80:	2a 06 0a 0a 	mov	0xa0a, r10
     b84:	00 00 
     b86:	80 ff 04 00 	jarl	b8a <_timer_init+0x20>, lp
     b8a:	44 fa       	add	4, lp
     b8c:	6a 00       	jmp	[r10]
     b8e:	1d 18       	mov	r29, sp
     b90:	23 ff 05 00 	ld.w	4[sp], lp
     b94:	23 ef 01 00 	ld.w	0[sp], r29
     b98:	48 1a       	add	8, sp
     b9a:	7f 00       	jmp	[lp]
     b9c:	00 00       	nop	
	...

00000ba0 <_interrupt>:
     ba0:	03 1e b0 ff 	addi	-80, sp, sp
     ba4:	63 f7 0d 00 	st.w	ep, 12[sp]
     ba8:	03 f0       	mov	sp, ep
     baa:	25 0d       	sst.w	r1, 72[ep]
     bac:	23 35       	sst.w	r6, 68[ep]
     bae:	21 3d       	sst.w	r7, 64[ep]
     bb0:	1f 45       	sst.w	r8, 60[ep]
     bb2:	1d 4d       	sst.w	r9, 56[ep]
     bb4:	1b 55       	sst.w	r10, 52[ep]
     bb6:	19 5d       	sst.w	r11, 48[ep]
     bb8:	17 65       	sst.w	r12, 44[ep]
     bba:	15 6d       	sst.w	r13, 40[ep]
     bbc:	13 75       	sst.w	r14, 36[ep]
     bbe:	11 7d       	sst.w	r15, 32[ep]
     bc0:	0f 85       	sst.w	r16, 28[ep]
     bc2:	0d 8d       	sst.w	r17, 24[ep]
     bc4:	0b 95       	sst.w	r18, 20[ep]
     bc6:	09 9d       	sst.w	r19, 16[ep]
     bc8:	05 fd       	sst.w	lp, 8[ep]
     bca:	e0 5f 40 00 	stsr	eipc/vip/mpm, r11
     bce:	03 5d       	sst.w	r11, 4[ep]
     bd0:	e1 5f 40 00 	stsr	eipsw/mpc, r11
     bd4:	01 5d       	sst.w	r11, 0[ep]
     bd6:	e4 37 40 00 	stsr	ecr/vmecr, r6
     bda:	40 56 00 00 	movhi	0, r0, r10
     bde:	2a 56 66 09 	movea	2406, r10, r10
     be2:	40 fe 00 00 	movhi	0, r0, lp
     be6:	3f fe ec 0b 	movea	3052, lp, lp
     bea:	6a 00       	jmp	[r10]

00000bec <end_int_handler>:
     bec:	03 f0       	mov	sp, ep
     bee:	02 5d       	sld.w	4[ep], r11
     bf0:	eb 07 20 00 	ldsr	r11, eipc/vip/mpm
     bf4:	00 5d       	sld.w	0[ep], r11
     bf6:	eb 0f 20 00 	ldsr	r11, eipsw/mpc
     bfa:	24 0d       	sld.w	72[ep], r1
     bfc:	22 35       	sld.w	68[ep], r6
     bfe:	20 3d       	sld.w	64[ep], r7
     c00:	1e 45       	sld.w	60[ep], r8
     c02:	1c 4d       	sld.w	56[ep], r9
     c04:	1a 55       	sld.w	52[ep], r10
     c06:	18 5d       	sld.w	48[ep], r11
     c08:	16 65       	sld.w	44[ep], r12
     c0a:	14 6d       	sld.w	40[ep], r13
     c0c:	12 75       	sld.w	36[ep], r14
     c0e:	10 7d       	sld.w	32[ep], r15
     c10:	0e 85       	sld.w	28[ep], r16
     c12:	0c 8d       	sld.w	24[ep], r17
     c14:	0a 95       	sld.w	20[ep], r18
     c16:	08 9d       	sld.w	16[ep], r19
     c18:	04 fd       	sld.w	8[ep], lp
     c1a:	1e 1e 50 00 	addi	80, ep, sp
     c1e:	06 f5       	sld.w	12[ep], ep
     c20:	e0 07 40 01 	reti	
	...

00000c30 <_test_print>:
     c30:	5c 1a       	add	-4, sp
     c32:	63 ef 01 00 	st.w	r29, 0[sp]
     c36:	58 1a       	add	-8, sp
     c38:	03 e8       	mov	sp, r29
     c3a:	7d 37 01 00 	st.w	r6, 0[r29]
     c3e:	7d 07 05 00 	st.w	r0, 4[r29]
     c42:	c5 15       	br	c6a <_test_print+0x3a>
     c44:	20 56 07 fa 	movea	-1529, r0, r10
     c48:	3d 5f 05 00 	ld.w	4[r29], r11
     c4c:	3d 67 01 00 	ld.w	0[r29], r12
     c50:	cc 59       	add	r12, r11
     c52:	0b 5f 00 00 	ld.b	0[r11], r11
     c56:	d8 5a       	shl	24, r11
     c58:	b8 5a       	sar	24, r11
     c5a:	8b 00       	zxb	r11
     c5c:	4a 5f 00 00 	st.b	r11, 0[r10]
     c60:	3d 57 05 00 	ld.w	4[r29], r10
     c64:	41 52       	add	1, r10
     c66:	7d 57 05 00 	st.w	r10, 4[r29]
     c6a:	3d 57 05 00 	ld.w	4[r29], r10
     c6e:	3d 5f 01 00 	ld.w	0[r29], r11
     c72:	cb 51       	add	r11, r10
     c74:	0a 57 00 00 	ld.b	0[r10], r10
     c78:	d8 52       	shl	24, r10
     c7a:	b8 52       	sar	24, r10
     c7c:	60 52       	cmp	0, r10
     c7e:	ba e5       	bne	c44 <_test_print+0x14>
     c80:	1d 18       	mov	r29, sp
     c82:	23 ef 09 00 	ld.w	8[sp], r29
     c86:	4c 1a       	add	12, sp
     c88:	7f 00       	jmp	[lp]

00000c8a <_get_lineno>:
     c8a:	5c 1a       	add	-4, sp
     c8c:	63 ef 01 00 	st.w	r29, 0[sp]
     c90:	03 1e ec ff 	addi	-20, sp, sp
     c94:	03 e8       	mov	sp, r29
     c96:	7d 37 01 00 	st.w	r6, 0[r29]
     c9a:	7d 07 0d 00 	st.w	r0, 12[r29]
     c9e:	3d 57 01 00 	ld.w	0[r29], r10
     ca2:	7d 57 09 00 	st.w	r10, 8[r29]
     ca6:	7d 07 0d 00 	st.w	r0, 12[r29]
     caa:	e5 0d       	br	cc6 <_get_lineno+0x3c>
     cac:	2b 06 80 70 	mov	0x6ff7080, r11
     cb0:	ff 06 
     cb2:	3d 57 0d 00 	ld.w	12[r29], r10
     cb6:	cb 51       	add	r11, r10
     cb8:	4a 07 00 00 	st.b	r0, 0[r10]
     cbc:	3d 57 0d 00 	ld.w	12[r29], r10
     cc0:	41 52       	add	1, r10
     cc2:	7d 57 0d 00 	st.w	r10, 12[r29]
     cc6:	3d 57 0d 00 	ld.w	12[r29], r10
     cca:	67 52       	cmp	7, r10
     ccc:	87 f5       	ble	cac <_get_lineno+0x22>
     cce:	7d 07 0d 00 	st.w	r0, 12[r29]
     cd2:	04 52       	mov	4, r10
     cd4:	7d 57 11 00 	st.w	r10, 16[r29]
     cd8:	f5 45       	br	d66 <_get_lineno+0xdc>
     cda:	2b 06 4c 13 	mov	0x134c, r11
     cde:	00 00 
     ce0:	3d 57 11 00 	ld.w	16[r29], r10
     ce4:	c2 52       	shl	2, r10
     ce6:	cb 51       	add	r11, r10
     ce8:	2a 57 01 00 	ld.w	0[r10], r10
     cec:	3d 5f 09 00 	ld.w	8[r29], r11
     cf0:	0b 60       	mov	r11, r12
     cf2:	ea 67 fc 5a 	divq	r10, r12, r11
     cf6:	0c 50       	mov	r12, r10
     cf8:	7d 57 05 00 	st.w	r10, 4[r29]
     cfc:	3d 57 0d 00 	ld.w	12[r29], r10
     d00:	60 52       	cmp	0, r10
     d02:	df 05       	bgt	d0c <_get_lineno+0x82>
     d04:	3d 57 05 00 	ld.w	4[r29], r10
     d08:	60 52       	cmp	0, r10
     d0a:	f7 15       	ble	d38 <_get_lineno+0xae>
     d0c:	3d 57 05 00 	ld.w	4[r29], r10
     d10:	8a 00       	zxb	r10
     d12:	0a 56 30 00 	addi	48, r10, r10
     d16:	8a 00       	zxb	r10
     d18:	d8 52       	shl	24, r10
     d1a:	0a 60       	mov	r10, r12
     d1c:	b8 62       	sar	24, r12
     d1e:	2b 06 80 70 	mov	0x6ff7080, r11
     d22:	ff 06 
     d24:	3d 57 0d 00 	ld.w	12[r29], r10
     d28:	cb 51       	add	r11, r10
     d2a:	4a 67 00 00 	st.b	r12, 0[r10]
     d2e:	3d 57 0d 00 	ld.w	12[r29], r10
     d32:	41 52       	add	1, r10
     d34:	7d 57 0d 00 	st.w	r10, 12[r29]
     d38:	2b 06 4c 13 	mov	0x134c, r11
     d3c:	00 00 
     d3e:	3d 57 11 00 	ld.w	16[r29], r10
     d42:	c2 52       	shl	2, r10
     d44:	cb 51       	add	r11, r10
     d46:	2a 5f 01 00 	ld.w	0[r10], r11
     d4a:	3d 57 05 00 	ld.w	4[r29], r10
     d4e:	eb 57 20 02 	mul	r11, r10, r0
     d52:	3d 5f 09 00 	ld.w	8[r29], r11
     d56:	8b 51       	subr	r11, r10
     d58:	7d 57 09 00 	st.w	r10, 8[r29]
     d5c:	3d 57 11 00 	ld.w	16[r29], r10
     d60:	5f 52       	add	-1, r10
     d62:	7d 57 11 00 	st.w	r10, 16[r29]
     d66:	3d 57 11 00 	ld.w	16[r29], r10
     d6a:	60 52       	cmp	0, r10
     d6c:	fe b5       	bge	cda <_get_lineno+0x50>
     d6e:	2a 06 80 70 	mov	0x6ff7080, r10
     d72:	ff 06 
     d74:	1d 18       	mov	r29, sp
     d76:	23 ef 15 00 	ld.w	20[sp], r29
     d7a:	03 1e 18 00 	addi	24, sp, sp
     d7e:	7f 00       	jmp	[lp]

00000d80 <_test_print_line>:
     d80:	58 1a       	add	-8, sp
     d82:	63 ff 05 00 	st.w	lp, 4[sp]
     d86:	63 ef 01 00 	st.w	r29, 0[sp]
     d8a:	58 1a       	add	-8, sp
     d8c:	03 e8       	mov	sp, r29
     d8e:	7d 37 05 00 	st.w	r6, 4[r29]
     d92:	7d 3f 01 00 	st.w	r7, 0[r29]
     d96:	3d 37 05 00 	ld.w	4[r29], r6
     d9a:	2a 06 30 0c 	mov	0xc30, r10
     d9e:	00 00 
     da0:	80 ff 04 00 	jarl	da4 <_test_print_line+0x24>, lp
     da4:	44 fa       	add	4, lp
     da6:	6a 00       	jmp	[r10]
     da8:	3d 37 01 00 	ld.w	0[r29], r6
     dac:	2a 06 8a 0c 	mov	0xc8a, r10
     db0:	00 00 
     db2:	80 ff 04 00 	jarl	db6 <_test_print_line+0x36>, lp
     db6:	44 fa       	add	4, lp
     db8:	6a 00       	jmp	[r10]
     dba:	0a 30       	mov	r10, r6
     dbc:	2a 06 30 0c 	mov	0xc30, r10
     dc0:	00 00 
     dc2:	80 ff 04 00 	jarl	dc6 <_test_print_line+0x46>, lp
     dc6:	44 fa       	add	4, lp
     dc8:	6a 00       	jmp	[r10]
     dca:	20 56 07 fa 	movea	-1529, r0, r10
     dce:	0a 5a       	mov	10, r11
     dd0:	4a 5f 00 00 	st.b	r11, 0[r10]
     dd4:	1d 18       	mov	r29, sp
     dd6:	23 ff 0d 00 	ld.w	12[sp], lp
     dda:	23 ef 09 00 	ld.w	8[sp], r29
     dde:	03 1e 10 00 	addi	16, sp, sp
     de2:	7f 00       	jmp	[lp]

00000de4 <_athrill_posix_socket>:
     de4:	5c 1a       	add	-4, sp
     de6:	63 ef 01 00 	st.w	r29, 0[sp]
     dea:	03 1e dc ff 	addi	-36, sp, sp
     dee:	03 e8       	mov	sp, r29
     df0:	7d 37 09 00 	st.w	r6, 8[r29]
     df4:	7d 3f 05 00 	st.w	r7, 4[r29]
     df8:	7d 47 01 00 	st.w	r8, 0[r29]
     dfc:	01 52       	mov	1, r10
     dfe:	7d 57 0d 00 	st.w	r10, 12[r29]
     e02:	20 56 ea ff 	movea	-22, r0, r10
     e06:	7d 57 11 00 	st.w	r10, 16[r29]
     e0a:	3d 57 09 00 	ld.w	8[r29], r10
     e0e:	7d 57 15 00 	st.w	r10, 20[r29]
     e12:	3d 57 05 00 	ld.w	4[r29], r10
     e16:	7d 57 19 00 	st.w	r10, 24[r29]
     e1a:	3d 57 01 00 	ld.w	0[r29], r10
     e1e:	7d 57 1d 00 	st.w	r10, 28[r29]
     e22:	1d 5e 0c 00 	addi	12, r29, r11
     e26:	2a 06 00 00 	mov	0xdead0000, r10
     e2a:	ad de 
     e2c:	6a 5f 01 00 	st.w	r11, 0[r10]
     e30:	3d 57 11 00 	ld.w	16[r29], r10
     e34:	1d 18       	mov	r29, sp
     e36:	23 ef 25 00 	ld.w	36[sp], r29
     e3a:	03 1e 28 00 	addi	40, sp, sp
     e3e:	7f 00       	jmp	[lp]

00000e40 <_athrill_posix_sense>:
     e40:	5c 1a       	add	-4, sp
     e42:	63 ef 01 00 	st.w	r29, 0[sp]
     e46:	03 1e e0 ff 	addi	-32, sp, sp
     e4a:	03 e8       	mov	sp, r29
     e4c:	7d 37 05 00 	st.w	r6, 4[r29]
     e50:	7d 3f 01 00 	st.w	r7, 0[r29]
     e54:	02 52       	mov	2, r10
     e56:	7d 57 09 00 	st.w	r10, 8[r29]
     e5a:	20 56 ea ff 	movea	-22, r0, r10
     e5e:	7d 57 0d 00 	st.w	r10, 12[r29]
     e62:	3d 57 05 00 	ld.w	4[r29], r10
     e66:	7d 57 11 00 	st.w	r10, 16[r29]
     e6a:	3d 57 01 00 	ld.w	0[r29], r10
     e6e:	7d 57 15 00 	st.w	r10, 20[r29]
     e72:	1d 5e 08 00 	addi	8, r29, r11
     e76:	2a 06 00 00 	mov	0xdead0000, r10
     e7a:	ad de 
     e7c:	6a 5f 01 00 	st.w	r11, 0[r10]
     e80:	3d 57 0d 00 	ld.w	12[r29], r10
     e84:	1d 18       	mov	r29, sp
     e86:	23 ef 21 00 	ld.w	32[sp], r29
     e8a:	03 1e 24 00 	addi	36, sp, sp
     e8e:	7f 00       	jmp	[lp]

00000e90 <_athrill_posix_connect>:
     e90:	5c 1a       	add	-4, sp
     e92:	63 ef 01 00 	st.w	r29, 0[sp]
     e96:	03 1e dc ff 	addi	-36, sp, sp
     e9a:	03 e8       	mov	sp, r29
     e9c:	7d 37 09 00 	st.w	r6, 8[r29]
     ea0:	7d 3f 05 00 	st.w	r7, 4[r29]
     ea4:	7d 47 01 00 	st.w	r8, 0[r29]
     ea8:	03 52       	mov	3, r10
     eaa:	7d 57 0d 00 	st.w	r10, 12[r29]
     eae:	20 56 ea ff 	movea	-22, r0, r10
     eb2:	7d 57 11 00 	st.w	r10, 16[r29]
     eb6:	3d 57 09 00 	ld.w	8[r29], r10
     eba:	7d 57 15 00 	st.w	r10, 20[r29]
     ebe:	3d 57 05 00 	ld.w	4[r29], r10
     ec2:	7d 57 19 00 	st.w	r10, 24[r29]
     ec6:	3d 57 01 00 	ld.w	0[r29], r10
     eca:	7d 57 1d 00 	st.w	r10, 28[r29]
     ece:	1d 5e 0c 00 	addi	12, r29, r11
     ed2:	2a 06 00 00 	mov	0xdead0000, r10
     ed6:	ad de 
     ed8:	6a 5f 01 00 	st.w	r11, 0[r10]
     edc:	3d 57 11 00 	ld.w	16[r29], r10
     ee0:	1d 18       	mov	r29, sp
     ee2:	23 ef 25 00 	ld.w	36[sp], r29
     ee6:	03 1e 28 00 	addi	40, sp, sp
     eea:	7f 00       	jmp	[lp]

00000eec <_athrill_posix_send>:
     eec:	5c 1a       	add	-4, sp
     eee:	63 ef 01 00 	st.w	r29, 0[sp]
     ef2:	03 1e d8 ff 	addi	-40, sp, sp
     ef6:	03 e8       	mov	sp, r29
     ef8:	7d 37 0d 00 	st.w	r6, 12[r29]
     efc:	7d 3f 09 00 	st.w	r7, 8[r29]
     f00:	7d 47 05 00 	st.w	r8, 4[r29]
     f04:	7d 4f 01 00 	st.w	r9, 0[r29]
     f08:	04 52       	mov	4, r10
     f0a:	7d 57 11 00 	st.w	r10, 16[r29]
     f0e:	20 56 ea ff 	movea	-22, r0, r10
     f12:	7d 57 15 00 	st.w	r10, 20[r29]
     f16:	3d 57 0d 00 	ld.w	12[r29], r10
     f1a:	7d 57 19 00 	st.w	r10, 24[r29]
     f1e:	3d 57 09 00 	ld.w	8[r29], r10
     f22:	7d 57 1d 00 	st.w	r10, 28[r29]
     f26:	3d 57 05 00 	ld.w	4[r29], r10
     f2a:	7d 57 21 00 	st.w	r10, 32[r29]
     f2e:	3d 57 01 00 	ld.w	0[r29], r10
     f32:	7d 57 25 00 	st.w	r10, 36[r29]
     f36:	1d 5e 10 00 	addi	16, r29, r11
     f3a:	2a 06 00 00 	mov	0xdead0000, r10
     f3e:	ad de 
     f40:	6a 5f 01 00 	st.w	r11, 0[r10]
     f44:	3d 57 15 00 	ld.w	20[r29], r10
     f48:	1d 18       	mov	r29, sp
     f4a:	23 ef 29 00 	ld.w	40[sp], r29
     f4e:	03 1e 2c 00 	addi	44, sp, sp
     f52:	7f 00       	jmp	[lp]

00000f54 <_athrill_posix_recv>:
     f54:	5c 1a       	add	-4, sp
     f56:	63 ef 01 00 	st.w	r29, 0[sp]
     f5a:	03 1e d8 ff 	addi	-40, sp, sp
     f5e:	03 e8       	mov	sp, r29
     f60:	7d 37 0d 00 	st.w	r6, 12[r29]
     f64:	7d 3f 09 00 	st.w	r7, 8[r29]
     f68:	7d 47 05 00 	st.w	r8, 4[r29]
     f6c:	7d 4f 01 00 	st.w	r9, 0[r29]
     f70:	05 52       	mov	5, r10
     f72:	7d 57 11 00 	st.w	r10, 16[r29]
     f76:	20 56 ea ff 	movea	-22, r0, r10
     f7a:	7d 57 15 00 	st.w	r10, 20[r29]
     f7e:	3d 57 0d 00 	ld.w	12[r29], r10
     f82:	7d 57 19 00 	st.w	r10, 24[r29]
     f86:	3d 57 09 00 	ld.w	8[r29], r10
     f8a:	7d 57 1d 00 	st.w	r10, 28[r29]
     f8e:	3d 57 05 00 	ld.w	4[r29], r10
     f92:	7d 57 21 00 	st.w	r10, 32[r29]
     f96:	3d 57 01 00 	ld.w	0[r29], r10
     f9a:	7d 57 25 00 	st.w	r10, 36[r29]
     f9e:	1d 5e 10 00 	addi	16, r29, r11
     fa2:	2a 06 00 00 	mov	0xdead0000, r10
     fa6:	ad de 
     fa8:	6a 5f 01 00 	st.w	r11, 0[r10]
     fac:	3d 57 15 00 	ld.w	20[r29], r10
     fb0:	1d 18       	mov	r29, sp
     fb2:	23 ef 29 00 	ld.w	40[sp], r29
     fb6:	03 1e 2c 00 	addi	44, sp, sp
     fba:	7f 00       	jmp	[lp]

00000fbc <_athrill_posix_shutdown>:
     fbc:	5c 1a       	add	-4, sp
     fbe:	63 ef 01 00 	st.w	r29, 0[sp]
     fc2:	03 1e e0 ff 	addi	-32, sp, sp
     fc6:	03 e8       	mov	sp, r29
     fc8:	7d 37 05 00 	st.w	r6, 4[r29]
     fcc:	7d 3f 01 00 	st.w	r7, 0[r29]
     fd0:	06 52       	mov	6, r10
     fd2:	7d 57 09 00 	st.w	r10, 8[r29]
     fd6:	20 56 ea ff 	movea	-22, r0, r10
     fda:	7d 57 0d 00 	st.w	r10, 12[r29]
     fde:	3d 57 05 00 	ld.w	4[r29], r10
     fe2:	7d 57 11 00 	st.w	r10, 16[r29]
     fe6:	3d 57 01 00 	ld.w	0[r29], r10
     fea:	7d 57 15 00 	st.w	r10, 20[r29]
     fee:	1d 5e 08 00 	addi	8, r29, r11
     ff2:	2a 06 00 00 	mov	0xdead0000, r10
     ff6:	ad de 
     ff8:	6a 5f 01 00 	st.w	r11, 0[r10]
     ffc:	3d 57 0d 00 	ld.w	12[r29], r10
    1000:	1d 18       	mov	r29, sp
    1002:	23 ef 21 00 	ld.w	32[sp], r29
    1006:	03 1e 24 00 	addi	36, sp, sp
    100a:	7f 00       	jmp	[lp]

0000100c <_main>:
    100c:	58 1a       	add	-8, sp
    100e:	63 ff 05 00 	st.w	lp, 4[sp]
    1012:	63 ef 01 00 	st.w	r29, 0[sp]
    1016:	03 1e 68 ff 	addi	-152, sp, sp
    101a:	03 e8       	mov	sp, r29
    101c:	2a 06 6a 0b 	mov	0xb6a, r10
    1020:	00 00 
    1022:	80 ff 04 00 	jarl	1026 <_main+0x1a>, lp
    1026:	44 fa       	add	4, lp
    1028:	6a 00       	jmp	[r10]
    102a:	26 06 60 13 	mov	0x1360, r6
    102e:	00 00 
    1030:	2a 06 30 0c 	mov	0xc30, r10
    1034:	00 00 
    1036:	80 ff 04 00 	jarl	103a <_main+0x2e>, lp
    103a:	44 fa       	add	4, lp
    103c:	6a 00       	jmp	[r10]
    103e:	00 32       	mov	0, r6
    1040:	00 3a       	mov	0, r7
    1042:	00 42       	mov	0, r8
    1044:	2a 06 e4 0d 	mov	0xde4, r10
    1048:	00 00 
    104a:	80 ff 04 00 	jarl	104e <_main+0x42>, lp
    104e:	44 fa       	add	4, lp
    1050:	6a 00       	jmp	[r10]
    1052:	7d 57 95 00 	st.w	r10, 148[r29]
    1056:	3d 57 95 00 	ld.w	148[r29], r10
    105a:	60 52       	cmp	0, r10
    105c:	ce 0d       	bge	1074 <_main+0x68>
    105e:	26 06 6f 13 	mov	0x136f, r6
    1062:	00 00 
    1064:	2a 06 30 0c 	mov	0xc30, r10
    1068:	00 00 
    106a:	80 ff 04 00 	jarl	106e <_main+0x62>, lp
    106e:	44 fa       	add	4, lp
    1070:	6a 00       	jmp	[r10]
    1072:	d5 0d       	br	108c <_main+0x80>
    1074:	26 06 7d 13 	mov	0x137d, r6
    1078:	00 00 
    107a:	3d 3f 95 00 	ld.w	148[r29], r7
    107e:	2a 06 80 0d 	mov	0xd80, r10
    1082:	00 00 
    1084:	80 ff 04 00 	jarl	1088 <_main+0x7c>, lp
    1088:	44 fa       	add	4, lp
    108a:	6a 00       	jmp	[r10]
    108c:	5d 07 00 00 	st.b	r0, 0[r29]
    1090:	2a 06 01 00 	mov	0x7f000001, r10
    1094:	00 7f 
    1096:	7d 57 05 00 	st.w	r10, 4[r29]
    109a:	20 56 55 c3 	movea	-15531, r0, r10
    109e:	7d 57 02 00 	st.h	r10, 2[r29]
    10a2:	1d 50       	mov	r29, r10
    10a4:	3d 37 95 00 	ld.w	148[r29], r6
    10a8:	0a 38       	mov	r10, r7
    10aa:	20 46 10 00 	movea	16, r0, r8
    10ae:	2a 06 90 0e 	mov	0xe90, r10
    10b2:	00 00 
    10b4:	80 ff 04 00 	jarl	10b8 <_main+0xac>, lp
    10b8:	44 fa       	add	4, lp
    10ba:	6a 00       	jmp	[r10]
    10bc:	7d 57 91 00 	st.w	r10, 144[r29]
    10c0:	3d 57 91 00 	ld.w	144[r29], r10
    10c4:	60 52       	cmp	0, r10
    10c6:	8e 15       	bge	10e6 <_main+0xda>
    10c8:	3d 57 91 00 	ld.w	144[r29], r10
    10cc:	80 51       	subr	r0, r10
    10ce:	26 06 88 13 	mov	0x1388, r6
    10d2:	00 00 
    10d4:	0a 38       	mov	r10, r7
    10d6:	2a 06 80 0d 	mov	0xd80, r10
    10da:	00 00 
    10dc:	80 ff 04 00 	jarl	10e0 <_main+0xd4>, lp
    10e0:	44 fa       	add	4, lp
    10e2:	6a 00       	jmp	[r10]
    10e4:	b5 0d       	br	10fa <_main+0xee>
    10e6:	26 06 97 13 	mov	0x1397, r6
    10ea:	00 00 
    10ec:	2a 06 30 0c 	mov	0xc30, r10
    10f0:	00 00 
    10f2:	80 ff 04 00 	jarl	10f6 <_main+0xea>, lp
    10f6:	44 fa       	add	4, lp
    10f8:	6a 00       	jmp	[r10]
    10fa:	3d 37 95 00 	ld.w	148[r29], r6
    10fe:	03 3a       	mov	3, r7
    1100:	2a 06 40 0e 	mov	0xe40, r10
    1104:	00 00 
    1106:	80 ff 04 00 	jarl	110a <_main+0xfe>, lp
    110a:	44 fa       	add	4, lp
    110c:	6a 00       	jmp	[r10]
    110e:	7d 57 91 00 	st.w	r10, 144[r29]
    1112:	3d 57 91 00 	ld.w	144[r29], r10
    1116:	60 52       	cmp	0, r10
    1118:	8e 15       	bge	1138 <_main+0x12c>
    111a:	3d 57 91 00 	ld.w	144[r29], r10
    111e:	80 51       	subr	r0, r10
    1120:	26 06 a3 13 	mov	0x13a3, r6
    1124:	00 00 
    1126:	0a 38       	mov	r10, r7
    1128:	2a 06 80 0d 	mov	0xd80, r10
    112c:	00 00 
    112e:	80 ff 04 00 	jarl	1132 <_main+0x126>, lp
    1132:	44 fa       	add	4, lp
    1134:	6a 00       	jmp	[r10]
    1136:	b5 0d       	br	114c <_main+0x140>
    1138:	26 06 b0 13 	mov	0x13b0, r6
    113c:	00 00 
    113e:	2a 06 30 0c 	mov	0xc30, r10
    1142:	00 00 
    1144:	80 ff 04 00 	jarl	1148 <_main+0x13c>, lp
    1148:	44 fa       	add	4, lp
    114a:	6a 00       	jmp	[r10]
    114c:	3d 57 91 00 	ld.w	144[r29], r10
    1150:	60 52       	cmp	0, r10
    1152:	ca d5       	bne	10fa <_main+0xee>
    1154:	2a 06 ba 13 	mov	0x13ba, r10
    1158:	00 00 
    115a:	3d 37 95 00 	ld.w	148[r29], r6
    115e:	0a 38       	mov	r10, r7
    1160:	20 46 11 00 	movea	17, r0, r8
    1164:	00 4a       	mov	0, r9
    1166:	2a 06 ec 0e 	mov	0xeec, r10
    116a:	00 00 
    116c:	80 ff 04 00 	jarl	1170 <_main+0x164>, lp
    1170:	44 fa       	add	4, lp
    1172:	6a 00       	jmp	[r10]
    1174:	7d 57 91 00 	st.w	r10, 144[r29]
    1178:	3d 57 91 00 	ld.w	144[r29], r10
    117c:	60 52       	cmp	0, r10
    117e:	8e 15       	bge	119e <_main+0x192>
    1180:	3d 57 91 00 	ld.w	144[r29], r10
    1184:	80 51       	subr	r0, r10
    1186:	26 06 cb 13 	mov	0x13cb, r6
    118a:	00 00 
    118c:	0a 38       	mov	r10, r7
    118e:	2a 06 80 0d 	mov	0xd80, r10
    1192:	00 00 
    1194:	80 ff 04 00 	jarl	1198 <_main+0x18c>, lp
    1198:	44 fa       	add	4, lp
    119a:	6a 00       	jmp	[r10]
    119c:	b5 0d       	br	11b2 <_main+0x1a6>
    119e:	26 06 d7 13 	mov	0x13d7, r6
    11a2:	00 00 
    11a4:	2a 06 30 0c 	mov	0xc30, r10
    11a8:	00 00 
    11aa:	80 ff 04 00 	jarl	11ae <_main+0x1a2>, lp
    11ae:	44 fa       	add	4, lp
    11b0:	6a 00       	jmp	[r10]
    11b2:	1d 56 10 00 	addi	16, r29, r10
    11b6:	3d 37 95 00 	ld.w	148[r29], r6
    11ba:	0a 38       	mov	r10, r7
    11bc:	20 46 80 00 	movea	128, r0, r8
    11c0:	00 4a       	mov	0, r9
    11c2:	2a 06 54 0f 	mov	0xf54, r10
    11c6:	00 00 
    11c8:	80 ff 04 00 	jarl	11cc <_main+0x1c0>, lp
    11cc:	44 fa       	add	4, lp
    11ce:	6a 00       	jmp	[r10]
    11d0:	7d 57 91 00 	st.w	r10, 144[r29]
    11d4:	3d 57 91 00 	ld.w	144[r29], r10
    11d8:	60 52       	cmp	0, r10
    11da:	c6 ed       	blt	11b2 <_main+0x1a6>
    11dc:	26 06 e0 13 	mov	0x13e0, r6
    11e0:	00 00 
    11e2:	2a 06 30 0c 	mov	0xc30, r10
    11e6:	00 00 
    11e8:	80 ff 04 00 	jarl	11ec <_main+0x1e0>, lp
    11ec:	44 fa       	add	4, lp
    11ee:	6a 00       	jmp	[r10]
    11f0:	1d 56 10 00 	addi	16, r29, r10
    11f4:	0a 30       	mov	r10, r6
    11f6:	2a 06 30 0c 	mov	0xc30, r10
    11fa:	00 00 
    11fc:	80 ff 04 00 	jarl	1200 <_main+0x1f4>, lp
    1200:	44 fa       	add	4, lp
    1202:	6a 00       	jmp	[r10]
    1204:	26 06 e9 13 	mov	0x13e9, r6
    1208:	00 00 
    120a:	2a 06 30 0c 	mov	0xc30, r10
    120e:	00 00 
    1210:	80 ff 04 00 	jarl	1214 <_main+0x208>, lp
    1214:	44 fa       	add	4, lp
    1216:	6a 00       	jmp	[r10]
    1218:	3d 37 95 00 	ld.w	148[r29], r6
    121c:	00 3a       	mov	0, r7
    121e:	2a 06 bc 0f 	mov	0xfbc, r10
    1222:	00 00 
    1224:	80 ff 04 00 	jarl	1228 <_main+0x21c>, lp
    1228:	44 fa       	add	4, lp
    122a:	6a 00       	jmp	[r10]
    122c:	7d 57 91 00 	st.w	r10, 144[r29]
    1230:	3d 57 91 00 	ld.w	144[r29], r10
    1234:	60 52       	cmp	0, r10
    1236:	8e 15       	bge	1256 <_main+0x24a>
    1238:	3d 57 91 00 	ld.w	144[r29], r10
    123c:	80 51       	subr	r0, r10
    123e:	26 06 eb 13 	mov	0x13eb, r6
    1242:	00 00 
    1244:	0a 38       	mov	r10, r7
    1246:	2a 06 80 0d 	mov	0xd80, r10
    124a:	00 00 
    124c:	80 ff 04 00 	jarl	1250 <_main+0x244>, lp
    1250:	44 fa       	add	4, lp
    1252:	6a 00       	jmp	[r10]
    1254:	b5 0d       	br	126a <_main+0x25e>
    1256:	26 06 f8 13 	mov	0x13f8, r6
    125a:	00 00 
    125c:	2a 06 30 0c 	mov	0xc30, r10
    1260:	00 00 
    1262:	80 ff 04 00 	jarl	1266 <_main+0x25a>, lp
    1266:	44 fa       	add	4, lp
    1268:	6a 00       	jmp	[r10]
    126a:	85 05       	br	126a <_main+0x25e>

0000126c <_bss_clear>:
    126c:	5c 1a       	add	-4, sp
    126e:	63 ef 01 00 	st.w	r29, 0[sp]
    1272:	58 1a       	add	-8, sp
    1274:	03 e8       	mov	sp, r29
    1276:	2a 06 00 70 	mov	0x6ff7000, r10
    127a:	ff 06 
    127c:	7d 57 05 00 	st.w	r10, 4[r29]
    1280:	2a 06 88 70 	mov	0x6ff7088, r10
    1284:	ff 06 
    1286:	7d 57 01 00 	st.w	r10, 0[r29]
    128a:	a5 0d       	br	129e <_bss_clear+0x32>
    128c:	3d 57 05 00 	ld.w	4[r29], r10
    1290:	4a 07 00 00 	st.b	r0, 0[r10]
    1294:	3d 57 05 00 	ld.w	4[r29], r10
    1298:	41 52       	add	1, r10
    129a:	7d 57 05 00 	st.w	r10, 4[r29]
    129e:	3d 5f 05 00 	ld.w	4[r29], r11
    12a2:	3d 57 01 00 	ld.w	0[r29], r10
    12a6:	ea 59       	cmp	r10, r11
    12a8:	a1 f5       	bl	128c <_bss_clear+0x20>
    12aa:	00 00       	nop	
    12ac:	1d 18       	mov	r29, sp
    12ae:	23 ef 09 00 	ld.w	8[sp], r29
    12b2:	4c 1a       	add	12, sp
    12b4:	7f 00       	jmp	[lp]

000012b6 <_data_init>:
    12b6:	5c 1a       	add	-4, sp
    12b8:	63 ef 01 00 	st.w	r29, 0[sp]
    12bc:	54 1a       	add	-12, sp
    12be:	03 e8       	mov	sp, r29
    12c0:	2a 06 04 14 	mov	0x1404, r10
    12c4:	00 00 
    12c6:	7d 57 09 00 	st.w	r10, 8[r29]
    12ca:	2a 06 04 14 	mov	0x1404, r10
    12ce:	00 00 
    12d0:	7d 57 01 00 	st.w	r10, 0[r29]
    12d4:	2a 06 00 70 	mov	0x6ff7000, r10
    12d8:	ff 06 
    12da:	7d 57 05 00 	st.w	r10, 4[r29]
    12de:	b5 15       	br	1304 <_data_init+0x4e>
    12e0:	3d 57 09 00 	ld.w	8[r29], r10
    12e4:	8a 5f 01 00 	ld.bu	0[r10], r11
    12e8:	3d 57 05 00 	ld.w	4[r29], r10
    12ec:	4a 5f 00 00 	st.b	r11, 0[r10]
    12f0:	3d 57 05 00 	ld.w	4[r29], r10
    12f4:	41 52       	add	1, r10
    12f6:	7d 57 05 00 	st.w	r10, 4[r29]
    12fa:	3d 57 09 00 	ld.w	8[r29], r10
    12fe:	41 52       	add	1, r10
    1300:	7d 57 09 00 	st.w	r10, 8[r29]
    1304:	3d 5f 09 00 	ld.w	8[r29], r11
    1308:	3d 57 01 00 	ld.w	0[r29], r10
    130c:	ea 59       	cmp	r10, r11
    130e:	91 ed       	bl	12e0 <_data_init+0x2a>
    1310:	1d 18       	mov	r29, sp
    1312:	23 ef 0d 00 	ld.w	12[sp], r29
    1316:	03 1e 10 00 	addi	16, sp, sp
    131a:	7f 00       	jmp	[lp]
