
test_main.elf:     file format elf32-v850-rh850


Disassembly of section .vector:

00000000 <__reset>:
   0:	80 07 d0 07 	jr	7d0 <_start>
	...
  10:	80 07 e0 07 	jr	7f0 <_default_int_handler>
	...
  20:	80 07 d0 07 	jr	7f0 <_default_int_handler>
	...
  40:	80 07 b0 07 	jr	7f0 <_default_int_handler>
	...
  50:	80 07 a0 07 	jr	7f0 <_default_int_handler>
	...
  60:	80 07 90 07 	jr	7f0 <_default_int_handler>
	...
  80:	80 07 70 07 	jr	7f0 <_default_int_handler>
	...
  90:	80 07 60 07 	jr	7f0 <_default_int_handler>
	...
  a0:	80 07 50 07 	jr	7f0 <_default_int_handler>
	...
  b0:	80 07 40 07 	jr	7f0 <_default_int_handler>
	...
  c0:	80 07 30 07 	jr	7f0 <_default_int_handler>
	...
  d0:	80 07 20 07 	jr	7f0 <_default_int_handler>
	...
  e0:	80 07 10 07 	jr	7f0 <_default_int_handler>
	...
  f0:	80 07 00 07 	jr	7f0 <_default_int_handler>
	...
 100:	80 07 f0 06 	jr	7f0 <_default_int_handler>
	...
 110:	80 07 e0 06 	jr	7f0 <_default_int_handler>
	...
 120:	80 07 d0 06 	jr	7f0 <_default_int_handler>
	...
 130:	80 07 c0 06 	jr	7f0 <_default_int_handler>
	...
 140:	80 07 b0 06 	jr	7f0 <_default_int_handler>
	...
 150:	80 07 a0 06 	jr	7f0 <_default_int_handler>
	...
 160:	80 07 90 06 	jr	7f0 <_default_int_handler>
	...
 170:	80 07 80 06 	jr	7f0 <_default_int_handler>
	...
 180:	80 07 70 06 	jr	7f0 <_default_int_handler>
	...
 190:	80 07 60 06 	jr	7f0 <_default_int_handler>
	...
 1a0:	80 07 50 06 	jr	7f0 <_default_int_handler>
	...
 1b0:	80 07 40 06 	jr	7f0 <_default_int_handler>
	...
 1c0:	80 07 30 06 	jr	7f0 <_default_int_handler>
	...
 1d0:	80 07 20 06 	jr	7f0 <_default_int_handler>
	...
 1e0:	80 07 10 06 	jr	7f0 <_default_int_handler>
	...
 1f0:	80 07 00 06 	jr	7f0 <_default_int_handler>
	...
 200:	80 07 f0 05 	jr	7f0 <_default_int_handler>
	...
 210:	80 07 e0 05 	jr	7f0 <_default_int_handler>
	...
 220:	80 07 d0 05 	jr	7f0 <_default_int_handler>
	...
 230:	80 07 c0 05 	jr	7f0 <_default_int_handler>
	...
 240:	80 07 b0 05 	jr	7f0 <_default_int_handler>
	...
 250:	80 07 a0 05 	jr	7f0 <_default_int_handler>
	...
 260:	80 07 90 05 	jr	7f0 <_default_int_handler>
	...
 270:	80 07 80 05 	jr	7f0 <_default_int_handler>
	...
 280:	80 07 70 05 	jr	7f0 <_default_int_handler>
	...
 290:	80 07 60 05 	jr	7f0 <_default_int_handler>
	...
 2a0:	80 07 50 05 	jr	7f0 <_default_int_handler>
	...
 2b0:	80 07 40 05 	jr	7f0 <_default_int_handler>
	...
 2c0:	80 07 30 05 	jr	7f0 <_default_int_handler>
	...
 2d0:	80 07 20 05 	jr	7f0 <_default_int_handler>
	...
 2e0:	80 07 10 05 	jr	7f0 <_default_int_handler>
	...
 2f0:	80 07 00 05 	jr	7f0 <_default_int_handler>
	...
 300:	80 07 f0 04 	jr	7f0 <_default_int_handler>
	...
 310:	80 07 e0 04 	jr	7f0 <_default_int_handler>
	...
 320:	80 07 d0 04 	jr	7f0 <_default_int_handler>
	...
 330:	80 07 c0 04 	jr	7f0 <_default_int_handler>
	...
 340:	80 07 b0 04 	jr	7f0 <_default_int_handler>
	...
 350:	80 07 a0 04 	jr	7f0 <_default_int_handler>
	...
 360:	80 07 90 04 	jr	7f0 <_default_int_handler>
	...
 370:	80 07 80 04 	jr	7f0 <_default_int_handler>
	...
 380:	80 07 70 04 	jr	7f0 <_default_int_handler>
	...
 390:	80 07 60 04 	jr	7f0 <_default_int_handler>
	...
 3a0:	80 07 50 04 	jr	7f0 <_default_int_handler>
	...
 3b0:	80 07 40 04 	jr	7f0 <_default_int_handler>
	...
 3c0:	80 07 30 04 	jr	7f0 <_default_int_handler>
	...
 3d0:	80 07 20 04 	jr	7f0 <_default_int_handler>
	...
 3e0:	80 07 10 04 	jr	7f0 <_default_int_handler>
	...
 3f0:	80 07 00 04 	jr	7f0 <_default_int_handler>
	...
 400:	80 07 f0 03 	jr	7f0 <_default_int_handler>
	...
 410:	80 07 e0 03 	jr	7f0 <_default_int_handler>
	...
 420:	80 07 d0 03 	jr	7f0 <_default_int_handler>
	...
 430:	80 07 c0 03 	jr	7f0 <_default_int_handler>
	...
 440:	80 07 b0 03 	jr	7f0 <_default_int_handler>
	...
 450:	80 07 a0 03 	jr	7f0 <_default_int_handler>
	...
 460:	80 07 90 03 	jr	7f0 <_default_int_handler>
	...
 470:	80 07 80 03 	jr	7f0 <_default_int_handler>
	...
 480:	80 07 70 03 	jr	7f0 <_default_int_handler>
	...
 490:	80 07 60 03 	jr	7f0 <_default_int_handler>
	...
 4a0:	80 07 50 03 	jr	7f0 <_default_int_handler>
	...
 4b0:	80 07 40 03 	jr	7f0 <_default_int_handler>
	...
 4c0:	80 07 30 03 	jr	7f0 <_default_int_handler>
	...
 4d0:	80 07 20 03 	jr	7f0 <_default_int_handler>
	...
 4e0:	80 07 10 03 	jr	7f0 <_default_int_handler>
	...
 4f0:	80 07 00 03 	jr	7f0 <_default_int_handler>
	...
 500:	80 07 f0 02 	jr	7f0 <_default_int_handler>
	...
 510:	80 07 e0 02 	jr	7f0 <_default_int_handler>
	...
 520:	80 07 d0 02 	jr	7f0 <_default_int_handler>
	...
 530:	80 07 c0 02 	jr	7f0 <_default_int_handler>
	...
 540:	80 07 b0 02 	jr	7f0 <_default_int_handler>
	...
 550:	80 07 a0 02 	jr	7f0 <_default_int_handler>
	...
 560:	80 07 90 02 	jr	7f0 <_default_int_handler>
	...
 570:	80 07 80 02 	jr	7f0 <_default_int_handler>
	...
 580:	80 07 70 02 	jr	7f0 <_default_int_handler>
	...
 590:	80 07 60 02 	jr	7f0 <_default_int_handler>
	...
 5a0:	80 07 50 02 	jr	7f0 <_default_int_handler>
	...
 5b0:	80 07 40 02 	jr	7f0 <_default_int_handler>
	...
 5c0:	80 07 30 02 	jr	7f0 <_default_int_handler>
	...
 5d0:	80 07 20 02 	jr	7f0 <_default_int_handler>
	...
 5e0:	80 07 10 02 	jr	7f0 <_default_int_handler>
	...
 5f0:	80 07 00 02 	jr	7f0 <_default_int_handler>
	...
 600:	80 07 f0 01 	jr	7f0 <_default_int_handler>
	...
 610:	80 07 e0 01 	jr	7f0 <_default_int_handler>
	...
 620:	80 07 d0 01 	jr	7f0 <_default_int_handler>
	...
 630:	80 07 c0 01 	jr	7f0 <_default_int_handler>
	...
 640:	80 07 b0 01 	jr	7f0 <_default_int_handler>
	...
 650:	80 07 a0 01 	jr	7f0 <_default_int_handler>
	...
 660:	80 07 90 01 	jr	7f0 <_default_int_handler>
	...
 670:	80 07 80 01 	jr	7f0 <_default_int_handler>
	...
 680:	80 07 70 01 	jr	7f0 <_default_int_handler>
	...
 690:	80 07 60 01 	jr	7f0 <_default_int_handler>
	...
 6a0:	80 07 50 01 	jr	7f0 <_default_int_handler>
	...
 6b0:	80 07 40 01 	jr	7f0 <_default_int_handler>
	...
 6c0:	80 07 30 01 	jr	7f0 <_default_int_handler>
	...
 6d0:	80 07 20 01 	jr	7f0 <_default_int_handler>
	...
 6e0:	80 07 10 01 	jr	7f0 <_default_int_handler>
	...
 6f0:	80 07 00 01 	jr	7f0 <_default_int_handler>
	...
 700:	80 07 f0 00 	jr	7f0 <_default_int_handler>
	...
 710:	80 07 e0 00 	jr	7f0 <_default_int_handler>
	...
 720:	80 07 d0 00 	jr	7f0 <_default_int_handler>
	...
 730:	80 07 c0 00 	jr	7f0 <_default_int_handler>
	...
 740:	80 07 b0 00 	jr	7f0 <_default_int_handler>
	...
 750:	80 07 a0 00 	jr	7f0 <_default_int_handler>
	...
 760:	80 07 90 00 	jr	7f0 <_default_int_handler>
	...
 770:	80 07 80 00 	jr	7f0 <_default_int_handler>
	...
 780:	80 07 70 00 	jr	7f0 <_default_int_handler>
	...
 790:	80 07 60 00 	jr	7f0 <_default_int_handler>
	...
 7a0:	80 07 50 00 	jr	7f0 <_default_int_handler>
	...
 7b0:	80 07 40 00 	jr	7f0 <_default_int_handler>
	...
 7c0:	80 07 30 00 	jr	7f0 <_default_int_handler>
	...

Disassembly of section .text:

000007d0 <_start>:
 7d0:	e0 07 60 01 	di	
 7d4:	40 1e ff 05 	movhi	1535, r0, sp
 7d8:	23 1e 04 70 	movea	28676, sp, sp
 7dc:	03 1e 00 04 	addi	1024, sp, sp
 7e0:	80 ff c8 00 	jarl	8a8 <_bss_clear>, lp
 7e4:	80 ff 0e 01 	jarl	8f2 <_data_init>, lp
 7e8:	e0 87 60 01 	ei	
 7ec:	c5 45       	br	874 <_main>
	...

000007f0 <_default_int_handler>:
 7f0:	85 05       	br	7f0 <_default_int_handler>
	...

00000800 <_training>:
 800:	09 9e 00 04 	addi	1024, r9, r19
 804:	85 3d       	br	874 <_main>
	...

00000810 <_test_print>:
 810:	5c 1a       	add	-4, sp
 812:	63 ef 01 00 	st.w	r29, 0[sp]
 816:	58 1a       	add	-8, sp
 818:	03 e8       	mov	sp, r29
 81a:	7d 37 01 00 	st.w	r6, 0[r29]
 81e:	7d 07 05 00 	st.w	r0, 4[r29]
 822:	c5 15       	br	84a <_test_print+0x3a>
 824:	20 56 07 fa 	movea	-1529, r0, r10
 828:	3d 5f 05 00 	ld.w	4[r29], r11
 82c:	3d 67 01 00 	ld.w	0[r29], r12
 830:	cc 59       	add	r12, r11
 832:	0b 5f 00 00 	ld.b	0[r11], r11
 836:	d8 5a       	shl	24, r11
 838:	b8 5a       	sar	24, r11
 83a:	8b 00       	zxb	r11
 83c:	4a 5f 00 00 	st.b	r11, 0[r10]
 840:	3d 57 05 00 	ld.w	4[r29], r10
 844:	41 52       	add	1, r10
 846:	7d 57 05 00 	st.w	r10, 4[r29]
 84a:	3d 57 05 00 	ld.w	4[r29], r10
 84e:	3d 5f 01 00 	ld.w	0[r29], r11
 852:	cb 51       	add	r11, r10
 854:	0a 57 00 00 	ld.b	0[r10], r10
 858:	d8 52       	shl	24, r10
 85a:	b8 52       	sar	24, r10
 85c:	60 52       	cmp	0, r10
 85e:	ba e5       	bne	824 <_test_print+0x14>
 860:	20 56 07 fa 	movea	-1529, r0, r10
 864:	0a 5a       	mov	10, r11
 866:	4a 5f 00 00 	st.b	r11, 0[r10]
 86a:	1d 18       	mov	r29, sp
 86c:	23 ef 09 00 	ld.w	8[sp], r29
 870:	4c 1a       	add	12, sp
 872:	7f 00       	jmp	[lp]

00000874 <_main>:
 874:	58 1a       	add	-8, sp
 876:	63 ff 05 00 	st.w	lp, 4[sp]
 87a:	63 ef 01 00 	st.w	r29, 0[sp]
 87e:	03 e8       	mov	sp, r29
 880:	2a 06 00 70 	mov	0x5ff7000, r10
 884:	ff 05 
 886:	2a 57 01 00 	ld.w	0[r10], r10
 88a:	20 5e e7 03 	movea	999, r0, r11
 88e:	6a 5f 01 00 	st.w	r11, 0[r10]
 892:	26 06 70 0a 	mov	0xa70, r6
 896:	00 00 
 898:	2a 06 10 08 	mov	0x810, r10
 89c:	00 00 
 89e:	80 ff 04 00 	jarl	8a2 <_main+0x2e>, lp
 8a2:	44 fa       	add	4, lp
 8a4:	6a 00       	jmp	[r10]
 8a6:	85 05       	br	8a6 <_main+0x32>

000008a8 <_bss_clear>:
 8a8:	5c 1a       	add	-4, sp
 8aa:	63 ef 01 00 	st.w	r29, 0[sp]
 8ae:	58 1a       	add	-8, sp
 8b0:	03 e8       	mov	sp, r29
 8b2:	2a 06 04 74 	mov	0x5ff7404, r10
 8b6:	ff 05 
 8b8:	7d 57 05 00 	st.w	r10, 4[r29]
 8bc:	2a 06 08 74 	mov	0x5ff7408, r10
 8c0:	ff 05 
 8c2:	7d 57 01 00 	st.w	r10, 0[r29]
 8c6:	a5 0d       	br	8da <_bss_clear+0x32>
 8c8:	3d 57 05 00 	ld.w	4[r29], r10
 8cc:	4a 07 00 00 	st.b	r0, 0[r10]
 8d0:	3d 57 05 00 	ld.w	4[r29], r10
 8d4:	41 52       	add	1, r10
 8d6:	7d 57 05 00 	st.w	r10, 4[r29]
 8da:	3d 5f 05 00 	ld.w	4[r29], r11
 8de:	3d 57 01 00 	ld.w	0[r29], r10
 8e2:	ea 59       	cmp	r10, r11
 8e4:	a1 f5       	bl	8c8 <_bss_clear+0x20>
 8e6:	00 00       	nop	
 8e8:	1d 18       	mov	r29, sp
 8ea:	23 ef 09 00 	ld.w	8[sp], r29
 8ee:	4c 1a       	add	12, sp
 8f0:	7f 00       	jmp	[lp]

000008f2 <_data_init>:
 8f2:	5c 1a       	add	-4, sp
 8f4:	63 ef 01 00 	st.w	r29, 0[sp]
 8f8:	54 1a       	add	-12, sp
 8fa:	03 e8       	mov	sp, r29
 8fc:	2a 06 b0 0a 	mov	0xab0, r10
 900:	00 00 
 902:	7d 57 09 00 	st.w	r10, 8[r29]
 906:	2a 06 b4 0a 	mov	0xab4, r10
 90a:	00 00 
 90c:	7d 57 01 00 	st.w	r10, 0[r29]
 910:	2a 06 00 70 	mov	0x5ff7000, r10
 914:	ff 05 
 916:	7d 57 05 00 	st.w	r10, 4[r29]
 91a:	b5 15       	br	940 <_data_init+0x4e>
 91c:	3d 57 09 00 	ld.w	8[r29], r10
 920:	8a 5f 01 00 	ld.bu	0[r10], r11
 924:	3d 57 05 00 	ld.w	4[r29], r10
 928:	4a 5f 00 00 	st.b	r11, 0[r10]
 92c:	3d 57 05 00 	ld.w	4[r29], r10
 930:	41 52       	add	1, r10
 932:	7d 57 05 00 	st.w	r10, 4[r29]
 936:	3d 57 09 00 	ld.w	8[r29], r10
 93a:	41 52       	add	1, r10
 93c:	7d 57 09 00 	st.w	r10, 8[r29]
 940:	3d 5f 09 00 	ld.w	8[r29], r11
 944:	3d 57 01 00 	ld.w	0[r29], r10
 948:	ea 59       	cmp	r10, r11
 94a:	91 ed       	bl	91c <_data_init+0x2a>
 94c:	1d 18       	mov	r29, sp
 94e:	23 ef 0d 00 	ld.w	12[sp], r29
 952:	03 1e 10 00 	addi	16, sp, sp
 956:	7f 00       	jmp	[lp]

00000958 <_test_print>:
 958:	5c 1a       	add	-4, sp
 95a:	63 ef 01 00 	st.w	r29, 0[sp]
 95e:	58 1a       	add	-8, sp
 960:	03 e8       	mov	sp, r29
 962:	7d 37 01 00 	st.w	r6, 0[r29]
 966:	7d 07 05 00 	st.w	r0, 4[r29]
 96a:	c5 15       	br	992 <_test_print+0x3a>
 96c:	20 56 07 fa 	movea	-1529, r0, r10
 970:	3d 5f 05 00 	ld.w	4[r29], r11
 974:	3d 67 01 00 	ld.w	0[r29], r12
 978:	cc 59       	add	r12, r11
 97a:	0b 5f 00 00 	ld.b	0[r11], r11
 97e:	d8 5a       	shl	24, r11
 980:	b8 5a       	sar	24, r11
 982:	8b 00       	zxb	r11
 984:	4a 5f 00 00 	st.b	r11, 0[r10]
 988:	3d 57 05 00 	ld.w	4[r29], r10
 98c:	41 52       	add	1, r10
 98e:	7d 57 05 00 	st.w	r10, 4[r29]
 992:	3d 57 05 00 	ld.w	4[r29], r10
 996:	3d 5f 01 00 	ld.w	0[r29], r11
 99a:	cb 51       	add	r11, r10
 99c:	0a 57 00 00 	ld.b	0[r10], r10
 9a0:	d8 52       	shl	24, r10
 9a2:	b8 52       	sar	24, r10
 9a4:	60 52       	cmp	0, r10
 9a6:	ba e5       	bne	96c <_test_print+0x14>
 9a8:	20 56 07 fa 	movea	-1529, r0, r10
 9ac:	0a 5a       	mov	10, r11
 9ae:	4a 5f 00 00 	st.b	r11, 0[r10]
 9b2:	1d 18       	mov	r29, sp
 9b4:	23 ef 09 00 	ld.w	8[sp], r29
 9b8:	4c 1a       	add	12, sp
 9ba:	7f 00       	jmp	[lp]

000009bc <_test_suite>:
 9bc:	58 1a       	add	-8, sp
 9be:	63 ff 05 00 	st.w	lp, 4[sp]
 9c2:	63 ef 01 00 	st.w	r29, 0[sp]
 9c6:	03 e8       	mov	sp, r29
 9c8:	2a 06 20 0a 	mov	0xa20, r10
 9cc:	00 00 
 9ce:	80 ff 04 00 	jarl	9d2 <_test_suite+0x16>, lp
 9d2:	44 fa       	add	4, lp
 9d4:	6a 00       	jmp	[r10]
 9d6:	60 52       	cmp	0, r10
 9d8:	ca 0d       	bne	9f0 <_test_suite+0x34>
 9da:	26 06 7f 0a 	mov	0xa7f, r6
 9de:	00 00 
 9e0:	2a 06 58 09 	mov	0x958, r10
 9e4:	00 00 
 9e6:	80 ff 04 00 	jarl	9ea <_test_suite+0x2e>, lp
 9ea:	44 fa       	add	4, lp
 9ec:	6a 00       	jmp	[r10]
 9ee:	b5 0d       	br	a04 <_test_suite+0x48>
 9f0:	26 06 97 0a 	mov	0xa97, r6
 9f4:	00 00 
 9f6:	2a 06 58 09 	mov	0x958, r10
 9fa:	00 00 
 9fc:	80 ff 04 00 	jarl	a00 <_test_suite+0x44>, lp
 a00:	44 fa       	add	4, lp
 a02:	6a 00       	jmp	[r10]
 a04:	00 00       	nop	
 a06:	1d 18       	mov	r29, sp
 a08:	23 ff 05 00 	ld.w	4[sp], lp
 a0c:	23 ef 01 00 	ld.w	0[sp], r29
 a10:	48 1a       	add	8, sp
 a12:	7f 00       	jmp	[lp]
	...

00000a20 <_do_test_add1_1>:
 a20:	03 1e ec ff 	addi	-20, sp, sp
 a24:	63 a7 01 00 	st.w	r20, 0[sp]
 a28:	63 af 05 00 	st.w	r21, 4[sp]
 a2c:	63 b7 09 00 	st.w	r22, 8[sp]
 a30:	63 bf 0d 00 	st.w	r23, 12[sp]
 a34:	63 c7 11 00 	st.w	r24, 16[sp]
 a38:	1f 52       	mov	-1, r10
 a3a:	00 a2       	mov	0, r20
 a3c:	00 aa       	mov	0, r21
 a3e:	00 b2       	mov	0, r22
 a40:	01 c2       	mov	1, r24
 a42:	e0 2f 20 00 	ldsr	r0, psw/vmtid
 a46:	d4 a9       	add	r20, r21
 a48:	e5 bf 40 00 	stsr	psw/vmtid, r23
 a4c:	f5 b1       	cmp	r21, r22
 a4e:	ca 05       	bne	a56 <add1_0_test_fail>
 a50:	f7 c1       	cmp	r23, r24
 a52:	aa 05       	bne	a56 <add1_0_test_fail>
 a54:	00 50       	mov	r0, r10

00000a56 <add1_0_test_fail>:
 a56:	23 a7 01 00 	ld.w	0[sp], r20
 a5a:	23 af 05 00 	ld.w	4[sp], r21
 a5e:	23 b7 09 00 	ld.w	8[sp], r22
 a62:	23 bf 0d 00 	ld.w	12[sp], r23
 a66:	23 c7 11 00 	ld.w	16[sp], r24
 a6a:	03 1e 14 00 	addi	20, sp, sp
 a6e:	7f 00       	jmp	[lp]
