
test_main.elf:     file format elf32-v850-rh850


Disassembly of section .vector:

00000000 <__reset>:
   0:	80 07 d0 07 	jr	7d0 <__text>
	...
  10:	80 07 64 08 	jr	874 <_default_int_handler>
	...
  20:	80 07 54 08 	jr	874 <_default_int_handler>
	...
  40:	80 07 34 08 	jr	874 <_default_int_handler>
	...
  50:	80 07 24 08 	jr	874 <_default_int_handler>
	...
  60:	80 07 14 08 	jr	874 <_default_int_handler>
	...
  80:	80 07 f4 07 	jr	874 <_default_int_handler>
	...
  90:	80 07 e4 07 	jr	874 <_default_int_handler>
	...
  a0:	80 07 d4 07 	jr	874 <_default_int_handler>
	...
  b0:	80 07 c4 07 	jr	874 <_default_int_handler>
	...
  c0:	80 07 b4 07 	jr	874 <_default_int_handler>
	...
  d0:	80 07 a4 07 	jr	874 <_default_int_handler>
	...
  e0:	80 07 94 07 	jr	874 <_default_int_handler>
	...
  f0:	80 07 84 07 	jr	874 <_default_int_handler>
	...
 100:	80 07 74 07 	jr	874 <_default_int_handler>
	...
 110:	80 07 64 07 	jr	874 <_default_int_handler>
	...
 120:	80 07 54 07 	jr	874 <_default_int_handler>
	...
 130:	80 07 44 07 	jr	874 <_default_int_handler>
	...
 140:	80 07 34 07 	jr	874 <_default_int_handler>
	...
 150:	80 07 24 07 	jr	874 <_default_int_handler>
	...
 160:	80 07 14 07 	jr	874 <_default_int_handler>
	...
 170:	80 07 04 07 	jr	874 <_default_int_handler>
	...
 180:	80 07 f4 06 	jr	874 <_default_int_handler>
	...
 190:	80 07 e4 06 	jr	874 <_default_int_handler>
	...
 1a0:	80 07 d4 06 	jr	874 <_default_int_handler>
	...
 1b0:	80 07 c4 06 	jr	874 <_default_int_handler>
	...
 1c0:	80 07 b4 06 	jr	874 <_default_int_handler>
	...
 1d0:	80 07 a4 06 	jr	874 <_default_int_handler>
	...
 1e0:	80 07 f0 0a 	jr	cd0 <_interrupt>
	...
 1f0:	80 07 84 06 	jr	874 <_default_int_handler>
	...
 200:	80 07 74 06 	jr	874 <_default_int_handler>
	...
 210:	80 07 64 06 	jr	874 <_default_int_handler>
	...
 220:	80 07 54 06 	jr	874 <_default_int_handler>
	...
 230:	80 07 44 06 	jr	874 <_default_int_handler>
	...
 240:	80 07 34 06 	jr	874 <_default_int_handler>
	...
 250:	80 07 24 06 	jr	874 <_default_int_handler>
	...
 260:	80 07 14 06 	jr	874 <_default_int_handler>
	...
 270:	80 07 04 06 	jr	874 <_default_int_handler>
	...
 280:	80 07 f4 05 	jr	874 <_default_int_handler>
	...
 290:	80 07 e4 05 	jr	874 <_default_int_handler>
	...
 2a0:	80 07 d4 05 	jr	874 <_default_int_handler>
	...
 2b0:	80 07 c4 05 	jr	874 <_default_int_handler>
	...
 2c0:	80 07 b4 05 	jr	874 <_default_int_handler>
	...
 2d0:	80 07 a4 05 	jr	874 <_default_int_handler>
	...
 2e0:	80 07 94 05 	jr	874 <_default_int_handler>
	...
 2f0:	80 07 84 05 	jr	874 <_default_int_handler>
	...
 300:	80 07 74 05 	jr	874 <_default_int_handler>
	...
 310:	80 07 64 05 	jr	874 <_default_int_handler>
	...
 320:	80 07 54 05 	jr	874 <_default_int_handler>
	...
 330:	80 07 44 05 	jr	874 <_default_int_handler>
	...
 340:	80 07 34 05 	jr	874 <_default_int_handler>
	...
 350:	80 07 24 05 	jr	874 <_default_int_handler>
	...
 360:	80 07 14 05 	jr	874 <_default_int_handler>
	...
 370:	80 07 04 05 	jr	874 <_default_int_handler>
	...
 380:	80 07 f4 04 	jr	874 <_default_int_handler>
	...
 390:	80 07 e4 04 	jr	874 <_default_int_handler>
	...
 3a0:	80 07 d4 04 	jr	874 <_default_int_handler>
	...
 3b0:	80 07 c4 04 	jr	874 <_default_int_handler>
	...
 3c0:	80 07 b4 04 	jr	874 <_default_int_handler>
	...
 3d0:	80 07 a4 04 	jr	874 <_default_int_handler>
	...
 3e0:	80 07 94 04 	jr	874 <_default_int_handler>
	...
 3f0:	80 07 84 04 	jr	874 <_default_int_handler>
	...
 400:	80 07 74 04 	jr	874 <_default_int_handler>
	...
 410:	80 07 64 04 	jr	874 <_default_int_handler>
	...
 420:	80 07 54 04 	jr	874 <_default_int_handler>
	...
 430:	80 07 44 04 	jr	874 <_default_int_handler>
	...
 440:	80 07 34 04 	jr	874 <_default_int_handler>
	...
 450:	80 07 24 04 	jr	874 <_default_int_handler>
	...
 460:	80 07 14 04 	jr	874 <_default_int_handler>
	...
 470:	80 07 04 04 	jr	874 <_default_int_handler>
	...
 480:	80 07 f4 03 	jr	874 <_default_int_handler>
	...
 490:	80 07 e4 03 	jr	874 <_default_int_handler>
	...
 4a0:	80 07 d4 03 	jr	874 <_default_int_handler>
	...
 4b0:	80 07 c4 03 	jr	874 <_default_int_handler>
	...
 4c0:	80 07 b4 03 	jr	874 <_default_int_handler>
	...
 4d0:	80 07 a4 03 	jr	874 <_default_int_handler>
	...
 4e0:	80 07 94 03 	jr	874 <_default_int_handler>
	...
 4f0:	80 07 84 03 	jr	874 <_default_int_handler>
	...
 500:	80 07 74 03 	jr	874 <_default_int_handler>
	...
 510:	80 07 64 03 	jr	874 <_default_int_handler>
	...
 520:	80 07 54 03 	jr	874 <_default_int_handler>
	...
 530:	80 07 44 03 	jr	874 <_default_int_handler>
	...
 540:	80 07 34 03 	jr	874 <_default_int_handler>
	...
 550:	80 07 24 03 	jr	874 <_default_int_handler>
	...
 560:	80 07 14 03 	jr	874 <_default_int_handler>
	...
 570:	80 07 04 03 	jr	874 <_default_int_handler>
	...
 580:	80 07 f4 02 	jr	874 <_default_int_handler>
	...
 590:	80 07 e4 02 	jr	874 <_default_int_handler>
	...
 5a0:	80 07 d4 02 	jr	874 <_default_int_handler>
	...
 5b0:	80 07 c4 02 	jr	874 <_default_int_handler>
	...
 5c0:	80 07 b4 02 	jr	874 <_default_int_handler>
	...
 5d0:	80 07 a4 02 	jr	874 <_default_int_handler>
	...
 5e0:	80 07 94 02 	jr	874 <_default_int_handler>
	...
 5f0:	80 07 84 02 	jr	874 <_default_int_handler>
	...
 600:	80 07 74 02 	jr	874 <_default_int_handler>
	...
 610:	80 07 64 02 	jr	874 <_default_int_handler>
	...
 620:	80 07 54 02 	jr	874 <_default_int_handler>
	...
 630:	80 07 44 02 	jr	874 <_default_int_handler>
	...
 640:	80 07 34 02 	jr	874 <_default_int_handler>
	...
 650:	80 07 24 02 	jr	874 <_default_int_handler>
	...
 660:	80 07 14 02 	jr	874 <_default_int_handler>
	...
 670:	80 07 04 02 	jr	874 <_default_int_handler>
	...
 680:	80 07 f4 01 	jr	874 <_default_int_handler>
	...
 690:	80 07 e4 01 	jr	874 <_default_int_handler>
	...
 6a0:	80 07 d4 01 	jr	874 <_default_int_handler>
	...
 6b0:	80 07 c4 01 	jr	874 <_default_int_handler>
	...
 6c0:	80 07 b4 01 	jr	874 <_default_int_handler>
	...
 6d0:	80 07 a4 01 	jr	874 <_default_int_handler>
	...
 6e0:	80 07 94 01 	jr	874 <_default_int_handler>
	...
 6f0:	80 07 84 01 	jr	874 <_default_int_handler>
	...
 700:	80 07 74 01 	jr	874 <_default_int_handler>
	...
 710:	80 07 64 01 	jr	874 <_default_int_handler>
	...
 720:	80 07 54 01 	jr	874 <_default_int_handler>
	...
 730:	80 07 44 01 	jr	874 <_default_int_handler>
	...
 740:	80 07 34 01 	jr	874 <_default_int_handler>
	...
 750:	80 07 24 01 	jr	874 <_default_int_handler>
	...
 760:	80 07 14 01 	jr	874 <_default_int_handler>
	...
 770:	80 07 04 01 	jr	874 <_default_int_handler>
	...
 780:	80 07 f4 00 	jr	874 <_default_int_handler>
	...
 790:	80 07 e4 00 	jr	874 <_default_int_handler>
	...
 7a0:	80 07 d4 00 	jr	874 <_default_int_handler>
	...
 7b0:	80 07 c4 00 	jr	874 <_default_int_handler>
	...
 7c0:	80 07 b4 00 	jr	874 <_default_int_handler>
	...

Disassembly of section .text:

000007d0 <__text>:
     7d0:	e0 07 60 01 	di	
     7d4:	40 1e ff 05 	movhi	1535, r0, sp
     7d8:	23 1e d0 70 	movea	28880, sp, sp
     7dc:	03 1e 00 04 	addi	1024, sp, sp
     7e0:	80 ff 1e 08 	jarl	ffe <_bss_clear>, lp
     7e4:	80 ff 62 08 	jarl	1046 <_data_init>, lp
     7e8:	e0 87 60 01 	ei	
     7ec:	80 ff b4 07 	jarl	fa0 <_main>, lp
     7f0:	e0 07 20 01 	halt	
	...

00000800 <_disable_int_all>:
     800:	5c 1a       	add	-4, sp
     802:	63 ef 01 00 	st.w	r29, 0[sp]
     806:	03 e8       	mov	sp, r29
     808:	e0 07 60 01 	di	
     80c:	1d 18       	mov	r29, sp
     80e:	23 ef 01 00 	ld.w	0[sp], r29
     812:	44 1a       	add	4, sp
     814:	7f 00       	jmp	[lp]

00000816 <_enable_int_all>:
     816:	5c 1a       	add	-4, sp
     818:	63 ef 01 00 	st.w	r29, 0[sp]
     81c:	03 e8       	mov	sp, r29
     81e:	e0 87 60 01 	ei	
     822:	1d 18       	mov	r29, sp
     824:	23 ef 01 00 	ld.w	0[sp], r29
     828:	44 1a       	add	4, sp
     82a:	7f 00       	jmp	[lp]

0000082c <_sil_wrb_mem>:
     82c:	54 1a       	add	-12, sp
     82e:	63 ef 09 00 	st.w	r29, 8[sp]
     832:	03 e8       	mov	sp, r29
     834:	7d 37 05 00 	st.w	r6, 4[r29]
     838:	07 50       	mov	r7, r10
     83a:	5d 57 00 00 	st.b	r10, 0[r29]
     83e:	3d 57 05 00 	ld.w	4[r29], r10
     842:	1d 5f 00 00 	ld.b	0[r29], r11
     846:	4a 5f 00 00 	st.b	r11, 0[r10]
     84a:	00 00       	nop	
     84c:	1d 18       	mov	r29, sp
     84e:	23 ef 09 00 	ld.w	8[sp], r29
     852:	4c 1a       	add	12, sp
     854:	7f 00       	jmp	[lp]

00000856 <_sil_reb_mem>:
     856:	58 1a       	add	-8, sp
     858:	63 ef 05 00 	st.w	r29, 4[sp]
     85c:	03 e8       	mov	sp, r29
     85e:	7d 37 01 00 	st.w	r6, 0[r29]
     862:	3d 57 01 00 	ld.w	0[r29], r10
     866:	8a 57 01 00 	ld.bu	0[r10], r10
     86a:	1d 18       	mov	r29, sp
     86c:	23 ef 05 00 	ld.w	4[sp], r29
     870:	48 1a       	add	8, sp
     872:	7f 00       	jmp	[lp]

00000874 <_default_int_handler>:
     874:	5c 1a       	add	-4, sp
     876:	63 ef 01 00 	st.w	r29, 0[sp]
     87a:	03 e8       	mov	sp, r29
     87c:	00 00       	nop	
     87e:	1d 18       	mov	r29, sp
     880:	23 ef 01 00 	ld.w	0[sp], r29
     884:	44 1a       	add	4, sp
     886:	7f 00       	jmp	[lp]

00000888 <_x_enable_int>:
     888:	03 1e ec ff 	addi	-20, sp, sp
     88c:	63 ff 11 00 	st.w	lp, 16[sp]
     890:	63 e7 0d 00 	st.w	r28, 12[sp]
     894:	63 ef 09 00 	st.w	r29, 8[sp]
     898:	03 e8       	mov	sp, r29
     89a:	7d 37 01 00 	st.w	r6, 0[r29]
     89e:	3d 57 01 00 	ld.w	0[r29], r10
     8a2:	ca 51       	add	r10, r10
     8a4:	0a 56 10 f1 	addi	-3824, r10, r10
     8a8:	7d 57 05 00 	st.w	r10, 4[r29]
     8ac:	3d e7 05 00 	ld.w	4[r29], r28
     8b0:	3d 57 05 00 	ld.w	4[r29], r10
     8b4:	0a 30       	mov	r10, r6
     8b6:	2a 06 56 08 	mov	0x856, r10
     8ba:	00 00 
     8bc:	80 ff 04 00 	jarl	8c0 <_x_enable_int+0x38>, lp
     8c0:	44 fa       	add	4, lp
     8c2:	6a 00       	jmp	[r10]
     8c4:	8a 00       	zxb	r10
     8c6:	ca 56 bf 00 	andi	191, r10, r10
     8ca:	1c 30       	mov	r28, r6
     8cc:	0a 38       	mov	r10, r7
     8ce:	2a 06 2c 08 	mov	0x82c, r10
     8d2:	00 00 
     8d4:	80 ff 04 00 	jarl	8d8 <_x_enable_int+0x50>, lp
     8d8:	44 fa       	add	4, lp
     8da:	6a 00       	jmp	[r10]
     8dc:	00 00       	nop	
     8de:	1d 18       	mov	r29, sp
     8e0:	23 ff 11 00 	ld.w	16[sp], lp
     8e4:	23 e7 0d 00 	ld.w	12[sp], r28
     8e8:	23 ef 09 00 	ld.w	8[sp], r29
     8ec:	03 1e 14 00 	addi	20, sp, sp
     8f0:	7f 00       	jmp	[lp]

000008f2 <_x_clear_int>:
     8f2:	03 1e ec ff 	addi	-20, sp, sp
     8f6:	63 ff 11 00 	st.w	lp, 16[sp]
     8fa:	63 e7 0d 00 	st.w	r28, 12[sp]
     8fe:	63 ef 09 00 	st.w	r29, 8[sp]
     902:	03 e8       	mov	sp, r29
     904:	7d 37 01 00 	st.w	r6, 0[r29]
     908:	3d 57 01 00 	ld.w	0[r29], r10
     90c:	ca 51       	add	r10, r10
     90e:	0a 56 10 f1 	addi	-3824, r10, r10
     912:	7d 57 05 00 	st.w	r10, 4[r29]
     916:	3d e7 05 00 	ld.w	4[r29], r28
     91a:	3d 57 05 00 	ld.w	4[r29], r10
     91e:	0a 30       	mov	r10, r6
     920:	2a 06 56 08 	mov	0x856, r10
     924:	00 00 
     926:	80 ff 04 00 	jarl	92a <_x_clear_int+0x38>, lp
     92a:	44 fa       	add	4, lp
     92c:	6a 00       	jmp	[r10]
     92e:	8a 00       	zxb	r10
     930:	ca 56 7f 00 	andi	127, r10, r10
     934:	1c 30       	mov	r28, r6
     936:	0a 38       	mov	r10, r7
     938:	2a 06 2c 08 	mov	0x82c, r10
     93c:	00 00 
     93e:	80 ff 04 00 	jarl	942 <_x_clear_int+0x50>, lp
     942:	44 fa       	add	4, lp
     944:	6a 00       	jmp	[r10]
     946:	1d 18       	mov	r29, sp
     948:	23 ff 11 00 	ld.w	16[sp], lp
     94c:	23 e7 0d 00 	ld.w	12[sp], r28
     950:	23 ef 09 00 	ld.w	8[sp], r29
     954:	03 1e 14 00 	addi	20, sp, sp
     958:	7f 00       	jmp	[lp]

0000095a <_interrupt_handler>:
     95a:	50 1a       	add	-16, sp
     95c:	63 ff 0d 00 	st.w	lp, 12[sp]
     960:	63 ef 09 00 	st.w	r29, 8[sp]
     964:	03 e8       	mov	sp, r29
     966:	7d 37 01 00 	st.w	r6, 0[r29]
     96a:	3d 57 01 00 	ld.w	0[r29], r10
     96e:	ca 56 ff ff 	andi	65535, r10, r10
     972:	0a 56 80 ff 	addi	-128, r10, r10
     976:	84 52       	shr	4, r10
     978:	7d 57 05 00 	st.w	r10, 4[r29]
     97c:	3d 57 05 00 	ld.w	4[r29], r10
     980:	0a 30       	mov	r10, r6
     982:	2a 06 f2 08 	mov	0x8f2, r10
     986:	00 00 
     988:	80 ff 04 00 	jarl	98c <_interrupt_handler+0x32>, lp
     98c:	44 fa       	add	4, lp
     98e:	6a 00       	jmp	[r10]
     990:	2a 06 16 08 	mov	0x816, r10
     994:	00 00 
     996:	80 ff 04 00 	jarl	99a <_interrupt_handler+0x40>, lp
     99a:	44 fa       	add	4, lp
     99c:	6a 00       	jmp	[r10]
     99e:	3d 37 05 00 	ld.w	4[r29], r6
     9a2:	2a 06 74 0a 	mov	0xa74, r10
     9a6:	00 00 
     9a8:	80 ff 04 00 	jarl	9ac <_interrupt_handler+0x52>, lp
     9ac:	44 fa       	add	4, lp
     9ae:	6a 00       	jmp	[r10]
     9b0:	2a 06 00 08 	mov	0x800, r10
     9b4:	00 00 
     9b6:	80 ff 04 00 	jarl	9ba <_interrupt_handler+0x60>, lp
     9ba:	44 fa       	add	4, lp
     9bc:	6a 00       	jmp	[r10]
     9be:	00 00       	nop	
     9c0:	1d 18       	mov	r29, sp
     9c2:	23 ff 0d 00 	ld.w	12[sp], lp
     9c6:	23 ef 09 00 	ld.w	8[sp], r29
     9ca:	03 1e 10 00 	addi	16, sp, sp
     9ce:	7f 00       	jmp	[lp]

000009d0 <_disable_int_all>:
     9d0:	5c 1a       	add	-4, sp
     9d2:	63 ef 01 00 	st.w	r29, 0[sp]
     9d6:	03 e8       	mov	sp, r29
     9d8:	e0 07 60 01 	di	
     9dc:	1d 18       	mov	r29, sp
     9de:	23 ef 01 00 	ld.w	0[sp], r29
     9e2:	44 1a       	add	4, sp
     9e4:	7f 00       	jmp	[lp]

000009e6 <_enable_int_all>:
     9e6:	5c 1a       	add	-4, sp
     9e8:	63 ef 01 00 	st.w	r29, 0[sp]
     9ec:	03 e8       	mov	sp, r29
     9ee:	e0 87 60 01 	ei	
     9f2:	1d 18       	mov	r29, sp
     9f4:	23 ef 01 00 	ld.w	0[sp], r29
     9f8:	44 1a       	add	4, sp
     9fa:	7f 00       	jmp	[lp]

000009fc <_register_interrupt_handler>:
     9fc:	50 1a       	add	-16, sp
     9fe:	63 ff 0d 00 	st.w	lp, 12[sp]
     a02:	63 ef 09 00 	st.w	r29, 8[sp]
     a06:	03 e8       	mov	sp, r29
     a08:	7d 37 05 00 	st.w	r6, 4[r29]
     a0c:	7d 3f 01 00 	st.w	r7, 0[r29]
     a10:	3d 5f 05 00 	ld.w	4[r29], r11
     a14:	20 56 1d 00 	movea	29, r0, r10
     a18:	ea 59       	cmp	r10, r11
     a1a:	cb 25       	bh	a62 <_register_interrupt_handler+0x66>
     a1c:	2a 06 d0 09 	mov	0x9d0, r10
     a20:	00 00 
     a22:	80 ff 04 00 	jarl	a26 <_register_interrupt_handler+0x2a>, lp
     a26:	44 fa       	add	4, lp
     a28:	6a 00       	jmp	[r10]
     a2a:	3d 57 05 00 	ld.w	4[r29], r10
     a2e:	0a 30       	mov	r10, r6
     a30:	2a 06 88 08 	mov	0x888, r10
     a34:	00 00 
     a36:	80 ff 04 00 	jarl	a3a <_register_interrupt_handler+0x3e>, lp
     a3a:	44 fa       	add	4, lp
     a3c:	6a 00       	jmp	[r10]
     a3e:	2b 06 00 70 	mov	0x5ff7000, r11
     a42:	ff 05 
     a44:	3d 57 05 00 	ld.w	4[r29], r10
     a48:	c2 52       	shl	2, r10
     a4a:	cb 51       	add	r11, r10
     a4c:	3d 5f 01 00 	ld.w	0[r29], r11
     a50:	6a 5f 01 00 	st.w	r11, 0[r10]
     a54:	2a 06 e6 09 	mov	0x9e6, r10
     a58:	00 00 
     a5a:	80 ff 04 00 	jarl	a5e <_register_interrupt_handler+0x62>, lp
     a5e:	44 fa       	add	4, lp
     a60:	6a 00       	jmp	[r10]
     a62:	00 00       	nop	
     a64:	1d 18       	mov	r29, sp
     a66:	23 ff 0d 00 	ld.w	12[sp], lp
     a6a:	23 ef 09 00 	ld.w	8[sp], r29
     a6e:	03 1e 10 00 	addi	16, sp, sp
     a72:	7f 00       	jmp	[lp]

00000a74 <_do_interrupt_handler>:
     a74:	54 1a       	add	-12, sp
     a76:	63 ff 09 00 	st.w	lp, 8[sp]
     a7a:	63 ef 05 00 	st.w	r29, 4[sp]
     a7e:	03 e8       	mov	sp, r29
     a80:	7d 37 01 00 	st.w	r6, 0[r29]
     a84:	3d 5f 01 00 	ld.w	0[r29], r11
     a88:	20 56 1d 00 	movea	29, r0, r10
     a8c:	ea 59       	cmp	r10, r11
     a8e:	9b 1d       	bh	ac0 <_do_interrupt_handler+0x4c>
     a90:	2b 06 00 70 	mov	0x5ff7000, r11
     a94:	ff 05 
     a96:	3d 57 01 00 	ld.w	0[r29], r10
     a9a:	c2 52       	shl	2, r10
     a9c:	cb 51       	add	r11, r10
     a9e:	2a 57 01 00 	ld.w	0[r10], r10
     aa2:	60 52       	cmp	0, r10
     aa4:	e2 0d       	be	ac0 <_do_interrupt_handler+0x4c>
     aa6:	2b 06 00 70 	mov	0x5ff7000, r11
     aaa:	ff 05 
     aac:	3d 57 01 00 	ld.w	0[r29], r10
     ab0:	c2 52       	shl	2, r10
     ab2:	cb 51       	add	r11, r10
     ab4:	2a 57 01 00 	ld.w	0[r10], r10
     ab8:	80 ff 04 00 	jarl	abc <_do_interrupt_handler+0x48>, lp
     abc:	44 fa       	add	4, lp
     abe:	6a 00       	jmp	[r10]
     ac0:	1d 18       	mov	r29, sp
     ac2:	23 ff 09 00 	ld.w	8[sp], lp
     ac6:	23 ef 05 00 	ld.w	4[sp], r29
     aca:	4c 1a       	add	12, sp
     acc:	7f 00       	jmp	[lp]

00000ace <_sil_wrb_mem>:
     ace:	54 1a       	add	-12, sp
     ad0:	63 ef 09 00 	st.w	r29, 8[sp]
     ad4:	03 e8       	mov	sp, r29
     ad6:	7d 37 05 00 	st.w	r6, 4[r29]
     ada:	07 50       	mov	r7, r10
     adc:	5d 57 00 00 	st.b	r10, 0[r29]
     ae0:	3d 57 05 00 	ld.w	4[r29], r10
     ae4:	1d 5f 00 00 	ld.b	0[r29], r11
     ae8:	4a 5f 00 00 	st.b	r11, 0[r10]
     aec:	00 00       	nop	
     aee:	1d 18       	mov	r29, sp
     af0:	23 ef 09 00 	ld.w	8[sp], r29
     af4:	4c 1a       	add	12, sp
     af6:	7f 00       	jmp	[lp]

00000af8 <_sil_reb_mem>:
     af8:	58 1a       	add	-8, sp
     afa:	63 ef 05 00 	st.w	r29, 4[sp]
     afe:	03 e8       	mov	sp, r29
     b00:	7d 37 01 00 	st.w	r6, 0[r29]
     b04:	3d 57 01 00 	ld.w	0[r29], r10
     b08:	8a 57 01 00 	ld.bu	0[r10], r10
     b0c:	1d 18       	mov	r29, sp
     b0e:	23 ef 05 00 	ld.w	4[sp], r29
     b12:	48 1a       	add	8, sp
     b14:	7f 00       	jmp	[lp]

00000b16 <_sil_wrh_mem>:
     b16:	54 1a       	add	-12, sp
     b18:	63 ef 09 00 	st.w	r29, 8[sp]
     b1c:	03 e8       	mov	sp, r29
     b1e:	7d 37 05 00 	st.w	r6, 4[r29]
     b22:	07 50       	mov	r7, r10
     b24:	7d 57 00 00 	st.h	r10, 0[r29]
     b28:	3d 57 05 00 	ld.w	4[r29], r10
     b2c:	3d 5f 00 00 	ld.h	0[r29], r11
     b30:	6a 5f 00 00 	st.h	r11, 0[r10]
     b34:	00 00       	nop	
     b36:	1d 18       	mov	r29, sp
     b38:	23 ef 09 00 	ld.w	8[sp], r29
     b3c:	4c 1a       	add	12, sp
     b3e:	7f 00       	jmp	[lp]

00000b40 <_timer_interrupt_handler>:
     b40:	58 1a       	add	-8, sp
     b42:	63 ff 05 00 	st.w	lp, 4[sp]
     b46:	63 ef 01 00 	st.w	r29, 0[sp]
     b4a:	03 e8       	mov	sp, r29
     b4c:	2a 06 aa 0e 	mov	0xeaa, r10
     b50:	00 00 
     b52:	80 ff 04 00 	jarl	b56 <_timer_interrupt_handler+0x16>, lp
     b56:	44 fa       	add	4, lp
     b58:	6a 00       	jmp	[r10]
     b5a:	00 00       	nop	
     b5c:	1d 18       	mov	r29, sp
     b5e:	23 ff 05 00 	ld.w	4[sp], lp
     b62:	23 ef 01 00 	ld.w	0[sp], r29
     b66:	48 1a       	add	8, sp
     b68:	7f 00       	jmp	[lp]

00000b6a <_timer_init>:
     b6a:	54 1a       	add	-12, sp
     b6c:	63 ff 09 00 	st.w	lp, 8[sp]
     b70:	63 ef 05 00 	st.w	r29, 4[sp]
     b74:	03 e8       	mov	sp, r29
     b76:	20 36 b0 f5 	movea	-2640, r0, r6
     b7a:	2a 06 f8 0a 	mov	0xaf8, r10
     b7e:	00 00 
     b80:	80 ff 04 00 	jarl	b84 <_timer_init+0x1a>, lp
     b84:	44 fa       	add	4, lp
     b86:	6a 00       	jmp	[r10]
     b88:	5d 57 03 00 	st.b	r10, 3[r29]
     b8c:	1d 57 03 00 	ld.b	3[r29], r10
     b90:	18 5a       	mov	-8, r11
     b92:	4b 51       	and	r11, r10
     b94:	5d 57 03 00 	st.b	r10, 3[r29]
     b98:	1d 57 03 00 	ld.b	3[r29], r10
     b9c:	8a 56 05 00 	ori	5, r10, r10
     ba0:	5d 57 03 00 	st.b	r10, 3[r29]
     ba4:	bd 57 03 00 	ld.bu	3[r29], r10
     ba8:	20 36 b0 f5 	movea	-2640, r0, r6
     bac:	0a 38       	mov	r10, r7
     bae:	2a 06 ce 0a 	mov	0xace, r10
     bb2:	00 00 
     bb4:	80 ff 04 00 	jarl	bb8 <_timer_init+0x4e>, lp
     bb8:	44 fa       	add	4, lp
     bba:	6a 00       	jmp	[r10]
     bbc:	20 36 b1 f5 	movea	-2639, r0, r6
     bc0:	2a 06 f8 0a 	mov	0xaf8, r10
     bc4:	00 00 
     bc6:	80 ff 04 00 	jarl	bca <_timer_init+0x60>, lp
     bca:	44 fa       	add	4, lp
     bcc:	6a 00       	jmp	[r10]
     bce:	5d 57 03 00 	st.b	r10, 3[r29]
     bd2:	5d 07 03 00 	st.b	r0, 3[r29]
     bd6:	bd 57 03 00 	ld.bu	3[r29], r10
     bda:	20 36 b1 f5 	movea	-2639, r0, r6
     bde:	0a 38       	mov	r10, r7
     be0:	2a 06 ce 0a 	mov	0xace, r10
     be4:	00 00 
     be6:	80 ff 04 00 	jarl	bea <_timer_init+0x80>, lp
     bea:	44 fa       	add	4, lp
     bec:	6a 00       	jmp	[r10]
     bee:	20 36 16 00 	movea	22, r0, r6
     bf2:	27 06 40 0b 	mov	0xb40, r7
     bf6:	00 00 
     bf8:	2a 06 fc 09 	mov	0x9fc, r10
     bfc:	00 00 
     bfe:	80 ff 04 00 	jarl	c02 <_timer_init+0x98>, lp
     c02:	44 fa       	add	4, lp
     c04:	6a 00       	jmp	[r10]
     c06:	1d 18       	mov	r29, sp
     c08:	23 ff 09 00 	ld.w	8[sp], lp
     c0c:	23 ef 05 00 	ld.w	4[sp], r29
     c10:	4c 1a       	add	12, sp
     c12:	7f 00       	jmp	[lp]

00000c14 <_timer_start>:
     c14:	54 1a       	add	-12, sp
     c16:	63 ff 09 00 	st.w	lp, 8[sp]
     c1a:	63 ef 05 00 	st.w	r29, 4[sp]
     c1e:	03 e8       	mov	sp, r29
     c20:	06 50       	mov	r6, r10
     c22:	7d 57 00 00 	st.h	r10, 0[r29]
     c26:	fd 57 01 00 	ld.hu	0[r29], r10
     c2a:	60 52       	cmp	0, r10
     c2c:	aa 05       	bne	c30 <_timer_start+0x1c>
     c2e:	f5 25       	br	c7c <_timer_start+0x68>
     c30:	3d 57 00 00 	ld.h	0[r29], r10
     c34:	5f 52       	add	-1, r10
     c36:	ca 00       	zxh	r10
     c38:	20 36 b6 f5 	movea	-2634, r0, r6
     c3c:	0a 38       	mov	r10, r7
     c3e:	2a 06 16 0b 	mov	0xb16, r10
     c42:	00 00 
     c44:	80 ff 04 00 	jarl	c48 <_timer_start+0x34>, lp
     c48:	44 fa       	add	4, lp
     c4a:	6a 00       	jmp	[r10]
     c4c:	20 36 b0 f5 	movea	-2640, r0, r6
     c50:	2a 06 f8 0a 	mov	0xaf8, r10
     c54:	00 00 
     c56:	80 ff 04 00 	jarl	c5a <_timer_start+0x46>, lp
     c5a:	44 fa       	add	4, lp
     c5c:	6a 00       	jmp	[r10]
     c5e:	8a 00       	zxb	r10
     c60:	20 5e 80 ff 	movea	-128, r0, r11
     c64:	0b 51       	or	r11, r10
     c66:	8a 00       	zxb	r10
     c68:	20 36 b0 f5 	movea	-2640, r0, r6
     c6c:	0a 38       	mov	r10, r7
     c6e:	2a 06 ce 0a 	mov	0xace, r10
     c72:	00 00 
     c74:	80 ff 04 00 	jarl	c78 <_timer_start+0x64>, lp
     c78:	44 fa       	add	4, lp
     c7a:	6a 00       	jmp	[r10]
     c7c:	1d 18       	mov	r29, sp
     c7e:	23 ff 09 00 	ld.w	8[sp], lp
     c82:	23 ef 05 00 	ld.w	4[sp], r29
     c86:	4c 1a       	add	12, sp
     c88:	7f 00       	jmp	[lp]

00000c8a <_timer_stop>:
     c8a:	58 1a       	add	-8, sp
     c8c:	63 ff 05 00 	st.w	lp, 4[sp]
     c90:	63 ef 01 00 	st.w	r29, 0[sp]
     c94:	03 e8       	mov	sp, r29
     c96:	20 36 b0 f5 	movea	-2640, r0, r6
     c9a:	2a 06 f8 0a 	mov	0xaf8, r10
     c9e:	00 00 
     ca0:	80 ff 04 00 	jarl	ca4 <_timer_stop+0x1a>, lp
     ca4:	44 fa       	add	4, lp
     ca6:	6a 00       	jmp	[r10]
     ca8:	8a 00       	zxb	r10
     caa:	ca 56 7f 00 	andi	127, r10, r10
     cae:	20 36 b0 f5 	movea	-2640, r0, r6
     cb2:	0a 38       	mov	r10, r7
     cb4:	2a 06 ce 0a 	mov	0xace, r10
     cb8:	00 00 
     cba:	80 ff 04 00 	jarl	cbe <_timer_stop+0x34>, lp
     cbe:	44 fa       	add	4, lp
     cc0:	6a 00       	jmp	[r10]
     cc2:	1d 18       	mov	r29, sp
     cc4:	23 ff 05 00 	ld.w	4[sp], lp
     cc8:	23 ef 01 00 	ld.w	0[sp], r29
     ccc:	48 1a       	add	8, sp
     cce:	7f 00       	jmp	[lp]

00000cd0 <_interrupt>:
     cd0:	03 1e b0 ff 	addi	-80, sp, sp
     cd4:	63 f7 0d 00 	st.w	ep, 12[sp]
     cd8:	03 f0       	mov	sp, ep
     cda:	25 0d       	sst.w	r1, 72[ep]
     cdc:	23 35       	sst.w	r6, 68[ep]
     cde:	21 3d       	sst.w	r7, 64[ep]
     ce0:	1f 45       	sst.w	r8, 60[ep]
     ce2:	1d 4d       	sst.w	r9, 56[ep]
     ce4:	1b 55       	sst.w	r10, 52[ep]
     ce6:	19 5d       	sst.w	r11, 48[ep]
     ce8:	17 65       	sst.w	r12, 44[ep]
     cea:	15 6d       	sst.w	r13, 40[ep]
     cec:	13 75       	sst.w	r14, 36[ep]
     cee:	11 7d       	sst.w	r15, 32[ep]
     cf0:	0f 85       	sst.w	r16, 28[ep]
     cf2:	0d 8d       	sst.w	r17, 24[ep]
     cf4:	0b 95       	sst.w	r18, 20[ep]
     cf6:	09 9d       	sst.w	r19, 16[ep]
     cf8:	05 fd       	sst.w	lp, 8[ep]
     cfa:	e0 5f 40 00 	stsr	eipc/vip/mpm, r11
     cfe:	03 5d       	sst.w	r11, 4[ep]
     d00:	e1 5f 40 00 	stsr	eipsw/mpc, r11
     d04:	01 5d       	sst.w	r11, 0[ep]
     d06:	e4 37 40 00 	stsr	ecr/vmecr, r6
     d0a:	40 56 00 00 	movhi	0, r0, r10
     d0e:	2a 56 5a 09 	movea	2394, r10, r10
     d12:	40 fe 00 00 	movhi	0, r0, lp
     d16:	3f fe 1c 0d 	movea	3356, lp, lp
     d1a:	6a 00       	jmp	[r10]

00000d1c <end_int_handler>:
     d1c:	03 f0       	mov	sp, ep
     d1e:	02 5d       	sld.w	4[ep], r11
     d20:	eb 07 20 00 	ldsr	r11, eipc/vip/mpm
     d24:	00 5d       	sld.w	0[ep], r11
     d26:	eb 0f 20 00 	ldsr	r11, eipsw/mpc
     d2a:	24 0d       	sld.w	72[ep], r1
     d2c:	22 35       	sld.w	68[ep], r6
     d2e:	20 3d       	sld.w	64[ep], r7
     d30:	1e 45       	sld.w	60[ep], r8
     d32:	1c 4d       	sld.w	56[ep], r9
     d34:	1a 55       	sld.w	52[ep], r10
     d36:	18 5d       	sld.w	48[ep], r11
     d38:	16 65       	sld.w	44[ep], r12
     d3a:	14 6d       	sld.w	40[ep], r13
     d3c:	12 75       	sld.w	36[ep], r14
     d3e:	10 7d       	sld.w	32[ep], r15
     d40:	0e 85       	sld.w	28[ep], r16
     d42:	0c 8d       	sld.w	24[ep], r17
     d44:	0a 95       	sld.w	20[ep], r18
     d46:	08 9d       	sld.w	16[ep], r19
     d48:	04 fd       	sld.w	8[ep], lp
     d4a:	1e 1e 50 00 	addi	80, ep, sp
     d4e:	06 f5       	sld.w	12[ep], ep
     d50:	e0 07 40 01 	reti	
	...

00000d60 <_test_print>:
     d60:	54 1a       	add	-12, sp
     d62:	63 ef 09 00 	st.w	r29, 8[sp]
     d66:	03 e8       	mov	sp, r29
     d68:	7d 37 01 00 	st.w	r6, 0[r29]
     d6c:	7d 07 05 00 	st.w	r0, 4[r29]
     d70:	c5 15       	br	d98 <_test_print+0x38>
     d72:	20 56 07 fa 	movea	-1529, r0, r10
     d76:	3d 5f 05 00 	ld.w	4[r29], r11
     d7a:	3d 67 01 00 	ld.w	0[r29], r12
     d7e:	cc 59       	add	r12, r11
     d80:	0b 5f 00 00 	ld.b	0[r11], r11
     d84:	d8 5a       	shl	24, r11
     d86:	b8 5a       	sar	24, r11
     d88:	8b 00       	zxb	r11
     d8a:	4a 5f 00 00 	st.b	r11, 0[r10]
     d8e:	3d 57 05 00 	ld.w	4[r29], r10
     d92:	41 52       	add	1, r10
     d94:	7d 57 05 00 	st.w	r10, 4[r29]
     d98:	3d 57 05 00 	ld.w	4[r29], r10
     d9c:	3d 5f 01 00 	ld.w	0[r29], r11
     da0:	cb 51       	add	r11, r10
     da2:	0a 57 00 00 	ld.b	0[r10], r10
     da6:	d8 52       	shl	24, r10
     da8:	b8 52       	sar	24, r10
     daa:	60 52       	cmp	0, r10
     dac:	ba e5       	bne	d72 <_test_print+0x12>
     dae:	1d 18       	mov	r29, sp
     db0:	23 ef 09 00 	ld.w	8[sp], r29
     db4:	4c 1a       	add	12, sp
     db6:	7f 00       	jmp	[lp]

00000db8 <_roslib_init>:
     db8:	58 1a       	add	-8, sp
     dba:	63 ff 05 00 	st.w	lp, 4[sp]
     dbe:	63 ef 01 00 	st.w	r29, 0[sp]
     dc2:	03 e8       	mov	sp, r29
     dc4:	2a 06 ae 18 	mov	0x18ae, r10
     dc8:	00 00 
     dca:	80 ff 04 00 	jarl	dce <_roslib_init+0x16>, lp
     dce:	44 fa       	add	4, lp
     dd0:	6a 00       	jmp	[r10]
     dd2:	00 00       	nop	
     dd4:	1d 18       	mov	r29, sp
     dd6:	23 ff 05 00 	ld.w	4[sp], lp
     dda:	23 ef 01 00 	ld.w	0[sp], r29
     dde:	48 1a       	add	8, sp
     de0:	7f 00       	jmp	[lp]

00000de2 <_roslib_publish>:
     de2:	03 1e e8 ff 	addi	-24, sp, sp
     de6:	63 ff 15 00 	st.w	lp, 20[sp]
     dea:	63 ef 11 00 	st.w	r29, 16[sp]
     dee:	03 e8       	mov	sp, r29
     df0:	7d 37 09 00 	st.w	r6, 8[r29]
     df4:	7d 3f 05 00 	st.w	r7, 4[r29]
     df8:	7d 47 01 00 	st.w	r8, 0[r29]
     dfc:	3d 5f 09 00 	ld.w	8[r29], r11
     e00:	3d 57 05 00 	ld.w	4[r29], r10
     e04:	0b 30       	mov	r11, r6
     e06:	0a 38       	mov	r10, r7
     e08:	3d 47 01 00 	ld.w	0[r29], r8
     e0c:	08 4a       	mov	8, r9
     e0e:	2a 06 fa 16 	mov	0x16fa, r10
     e12:	00 00 
     e14:	80 ff 04 00 	jarl	e18 <_roslib_publish+0x36>, lp
     e18:	44 fa       	add	4, lp
     e1a:	6a 00       	jmp	[r10]
     e1c:	7d 57 0d 00 	st.w	r10, 12[r29]
     e20:	3d 57 0d 00 	ld.w	12[r29], r10
     e24:	60 52       	cmp	0, r10
     e26:	b2 0d       	be	e3c <_roslib_publish+0x5a>
     e28:	26 06 60 1b 	mov	0x1b60, r6
     e2c:	00 00 
     e2e:	2a 06 60 0d 	mov	0xd60, r10
     e32:	00 00 
     e34:	80 ff 04 00 	jarl	e38 <_roslib_publish+0x56>, lp
     e38:	44 fa       	add	4, lp
     e3a:	6a 00       	jmp	[r10]
     e3c:	00 00       	nop	
     e3e:	1d 18       	mov	r29, sp
     e40:	23 ff 15 00 	ld.w	20[sp], lp
     e44:	23 ef 11 00 	ld.w	16[sp], r29
     e48:	03 1e 18 00 	addi	24, sp, sp
     e4c:	7f 00       	jmp	[lp]

00000e4e <_roslib_subscribe>:
     e4e:	03 1e e8 ff 	addi	-24, sp, sp
     e52:	63 ff 15 00 	st.w	lp, 20[sp]
     e56:	63 ef 11 00 	st.w	r29, 16[sp]
     e5a:	03 e8       	mov	sp, r29
     e5c:	7d 37 09 00 	st.w	r6, 8[r29]
     e60:	7d 3f 05 00 	st.w	r7, 4[r29]
     e64:	7d 47 01 00 	st.w	r8, 0[r29]
     e68:	3d 5f 09 00 	ld.w	8[r29], r11
     e6c:	3d 57 05 00 	ld.w	4[r29], r10
     e70:	0b 30       	mov	r11, r6
     e72:	0a 38       	mov	r10, r7
     e74:	3d 47 01 00 	ld.w	0[r29], r8
     e78:	08 4a       	mov	8, r9
     e7a:	2a 06 4c 17 	mov	0x174c, r10
     e7e:	00 00 
     e80:	80 ff 04 00 	jarl	e84 <_roslib_subscribe+0x36>, lp
     e84:	44 fa       	add	4, lp
     e86:	6a 00       	jmp	[r10]
     e88:	7d 57 0d 00 	st.w	r10, 12[r29]
     e8c:	3d 57 0d 00 	ld.w	12[r29], r10
     e90:	60 52       	cmp	0, r10
     e92:	b2 05       	be	e98 <_roslib_subscribe+0x4a>
     e94:	1f 52       	mov	-1, r10
     e96:	a5 05       	br	e9a <_roslib_subscribe+0x4c>
     e98:	00 52       	mov	0, r10
     e9a:	1d 18       	mov	r29, sp
     e9c:	23 ff 15 00 	ld.w	20[sp], lp
     ea0:	23 ef 11 00 	ld.w	16[sp], r29
     ea4:	03 1e 18 00 	addi	24, sp, sp
     ea8:	7f 00       	jmp	[lp]

00000eaa <_rosrun>:
     eaa:	50 1a       	add	-16, sp
     eac:	63 ff 0d 00 	st.w	lp, 12[sp]
     eb0:	63 ef 09 00 	st.w	r29, 8[sp]
     eb4:	03 e8       	mov	sp, r29
     eb6:	1d 50       	mov	r29, r10
     eb8:	00 32       	mov	0, r6
     eba:	01 3a       	mov	1, r7
     ebc:	0a 40       	mov	r10, r8
     ebe:	2a 06 4e 0e 	mov	0xe4e, r10
     ec2:	00 00 
     ec4:	80 ff 04 00 	jarl	ec8 <_rosrun+0x1e>, lp
     ec8:	44 fa       	add	4, lp
     eca:	6a 00       	jmp	[r10]
     ecc:	60 52       	cmp	0, r10
     ece:	c6 0d       	blt	ee6 <_rosrun+0x3c>
     ed0:	1d 50       	mov	r29, r10
     ed2:	01 32       	mov	1, r6
     ed4:	00 3a       	mov	0, r7
     ed6:	0a 40       	mov	r10, r8
     ed8:	2a 06 e2 0d 	mov	0xde2, r10
     edc:	00 00 
     ede:	80 ff 04 00 	jarl	ee2 <_rosrun+0x38>, lp
     ee2:	44 fa       	add	4, lp
     ee4:	6a 00       	jmp	[r10]
     ee6:	1d 50       	mov	r29, r10
     ee8:	01 32       	mov	1, r6
     eea:	01 3a       	mov	1, r7
     eec:	0a 40       	mov	r10, r8
     eee:	2a 06 4e 0e 	mov	0xe4e, r10
     ef2:	00 00 
     ef4:	80 ff 04 00 	jarl	ef8 <_rosrun+0x4e>, lp
     ef8:	44 fa       	add	4, lp
     efa:	6a 00       	jmp	[r10]
     efc:	60 52       	cmp	0, r10
     efe:	c6 0d       	blt	f16 <_rosrun+0x6c>
     f00:	1d 50       	mov	r29, r10
     f02:	00 32       	mov	0, r6
     f04:	00 3a       	mov	0, r7
     f06:	0a 40       	mov	r10, r8
     f08:	2a 06 e2 0d 	mov	0xde2, r10
     f0c:	00 00 
     f0e:	80 ff 04 00 	jarl	f12 <_rosrun+0x68>, lp
     f12:	44 fa       	add	4, lp
     f14:	6a 00       	jmp	[r10]
     f16:	00 00       	nop	
     f18:	1d 18       	mov	r29, sp
     f1a:	23 ff 0d 00 	ld.w	12[sp], lp
     f1e:	23 ef 09 00 	ld.w	8[sp], r29
     f22:	03 1e 10 00 	addi	16, sp, sp
     f26:	7f 00       	jmp	[lp]

00000f28 <_test_print>:
     f28:	54 1a       	add	-12, sp
     f2a:	63 ef 09 00 	st.w	r29, 8[sp]
     f2e:	03 e8       	mov	sp, r29
     f30:	7d 37 01 00 	st.w	r6, 0[r29]
     f34:	7d 07 05 00 	st.w	r0, 4[r29]
     f38:	c5 15       	br	f60 <_test_print+0x38>
     f3a:	20 56 07 fa 	movea	-1529, r0, r10
     f3e:	3d 5f 05 00 	ld.w	4[r29], r11
     f42:	3d 67 01 00 	ld.w	0[r29], r12
     f46:	cc 59       	add	r12, r11
     f48:	0b 5f 00 00 	ld.b	0[r11], r11
     f4c:	d8 5a       	shl	24, r11
     f4e:	b8 5a       	sar	24, r11
     f50:	8b 00       	zxb	r11
     f52:	4a 5f 00 00 	st.b	r11, 0[r10]
     f56:	3d 57 05 00 	ld.w	4[r29], r10
     f5a:	41 52       	add	1, r10
     f5c:	7d 57 05 00 	st.w	r10, 4[r29]
     f60:	3d 57 05 00 	ld.w	4[r29], r10
     f64:	3d 5f 01 00 	ld.w	0[r29], r11
     f68:	cb 51       	add	r11, r10
     f6a:	0a 57 00 00 	ld.b	0[r10], r10
     f6e:	d8 52       	shl	24, r10
     f70:	b8 52       	sar	24, r10
     f72:	60 52       	cmp	0, r10
     f74:	ba e5       	bne	f3a <_test_print+0x12>
     f76:	1d 18       	mov	r29, sp
     f78:	23 ef 09 00 	ld.w	8[sp], r29
     f7c:	4c 1a       	add	12, sp
     f7e:	7f 00       	jmp	[lp]

00000f80 <_do_idle>:
     f80:	5c 1a       	add	-4, sp
     f82:	63 ef 01 00 	st.w	r29, 0[sp]
     f86:	03 e8       	mov	sp, r29
     f88:	e0 07 20 01 	halt	
	...
     f94:	00 00       	nop	
     f96:	1d 18       	mov	r29, sp
     f98:	23 ef 01 00 	ld.w	0[sp], r29
     f9c:	44 1a       	add	4, sp
     f9e:	7f 00       	jmp	[lp]

00000fa0 <_main>:
     fa0:	58 1a       	add	-8, sp
     fa2:	63 ff 05 00 	st.w	lp, 4[sp]
     fa6:	63 ef 01 00 	st.w	r29, 0[sp]
     faa:	03 e8       	mov	sp, r29
     fac:	2a 06 6a 0b 	mov	0xb6a, r10
     fb0:	00 00 
     fb2:	80 ff 04 00 	jarl	fb6 <_main+0x16>, lp
     fb6:	44 fa       	add	4, lp
     fb8:	6a 00       	jmp	[r10]
     fba:	2a 06 b8 0d 	mov	0xdb8, r10
     fbe:	00 00 
     fc0:	80 ff 04 00 	jarl	fc4 <_main+0x24>, lp
     fc4:	44 fa       	add	4, lp
     fc6:	6a 00       	jmp	[r10]
     fc8:	26 06 8c 1b 	mov	0x1b8c, r6
     fcc:	00 00 
     fce:	2a 06 28 0f 	mov	0xf28, r10
     fd2:	00 00 
     fd4:	80 ff 04 00 	jarl	fd8 <_main+0x38>, lp
     fd8:	44 fa       	add	4, lp
     fda:	6a 00       	jmp	[r10]
     fdc:	20 36 e8 03 	movea	1000, r0, r6
     fe0:	2a 06 14 0c 	mov	0xc14, r10
     fe4:	00 00 
     fe6:	80 ff 04 00 	jarl	fea <_main+0x4a>, lp
     fea:	44 fa       	add	4, lp
     fec:	6a 00       	jmp	[r10]
     fee:	2a 06 80 0f 	mov	0xf80, r10
     ff2:	00 00 
     ff4:	80 ff 04 00 	jarl	ff8 <_main+0x58>, lp
     ff8:	44 fa       	add	4, lp
     ffa:	6a 00       	jmp	[r10]
     ffc:	95 fd       	br	fee <_main+0x4e>

00000ffe <_bss_clear>:
     ffe:	54 1a       	add	-12, sp
    1000:	63 ef 09 00 	st.w	r29, 8[sp]
    1004:	03 e8       	mov	sp, r29
    1006:	2a 06 00 70 	mov	0x5ff7000, r10
    100a:	ff 05 
    100c:	7d 57 05 00 	st.w	r10, 4[r29]
    1010:	2a 06 d0 70 	mov	0x5ff70d0, r10
    1014:	ff 05 
    1016:	7d 57 01 00 	st.w	r10, 0[r29]
    101a:	a5 0d       	br	102e <_bss_clear+0x30>
    101c:	3d 57 05 00 	ld.w	4[r29], r10
    1020:	4a 07 00 00 	st.b	r0, 0[r10]
    1024:	3d 57 05 00 	ld.w	4[r29], r10
    1028:	41 52       	add	1, r10
    102a:	7d 57 05 00 	st.w	r10, 4[r29]
    102e:	3d 5f 05 00 	ld.w	4[r29], r11
    1032:	3d 57 01 00 	ld.w	0[r29], r10
    1036:	ea 59       	cmp	r10, r11
    1038:	a1 f5       	bl	101c <_bss_clear+0x1e>
    103a:	00 00       	nop	
    103c:	1d 18       	mov	r29, sp
    103e:	23 ef 09 00 	ld.w	8[sp], r29
    1042:	4c 1a       	add	12, sp
    1044:	7f 00       	jmp	[lp]

00001046 <_data_init>:
    1046:	50 1a       	add	-16, sp
    1048:	63 ef 0d 00 	st.w	r29, 12[sp]
    104c:	03 e8       	mov	sp, r29
    104e:	2a 06 9c 1b 	mov	0x1b9c, r10
    1052:	00 00 
    1054:	7d 57 09 00 	st.w	r10, 8[r29]
    1058:	2a 06 9c 1b 	mov	0x1b9c, r10
    105c:	00 00 
    105e:	7d 57 01 00 	st.w	r10, 0[r29]
    1062:	2a 06 00 70 	mov	0x5ff7000, r10
    1066:	ff 05 
    1068:	7d 57 05 00 	st.w	r10, 4[r29]
    106c:	b5 15       	br	1092 <_data_init+0x4c>
    106e:	3d 57 09 00 	ld.w	8[r29], r10
    1072:	8a 5f 01 00 	ld.bu	0[r10], r11
    1076:	3d 57 05 00 	ld.w	4[r29], r10
    107a:	4a 5f 00 00 	st.b	r11, 0[r10]
    107e:	3d 57 05 00 	ld.w	4[r29], r10
    1082:	41 52       	add	1, r10
    1084:	7d 57 05 00 	st.w	r10, 4[r29]
    1088:	3d 57 09 00 	ld.w	8[r29], r10
    108c:	41 52       	add	1, r10
    108e:	7d 57 09 00 	st.w	r10, 8[r29]
    1092:	3d 5f 09 00 	ld.w	8[r29], r11
    1096:	3d 57 01 00 	ld.w	0[r29], r10
    109a:	ea 59       	cmp	r10, r11
    109c:	91 ed       	bl	106e <_data_init+0x28>
    109e:	1d 18       	mov	r29, sp
    10a0:	23 ef 0d 00 	ld.w	12[sp], r29
    10a4:	03 1e 10 00 	addi	16, sp, sp
    10a8:	7f 00       	jmp	[lp]

000010aa <_athrill_comm_write>:
    10aa:	03 1e e0 ff 	addi	-32, sp, sp
    10ae:	63 ff 1d 00 	st.w	lp, 28[sp]
    10b2:	63 ef 19 00 	st.w	r29, 24[sp]
    10b6:	03 e8       	mov	sp, r29
    10b8:	7d 37 0d 00 	st.w	r6, 12[r29]
    10bc:	7d 3f 09 00 	st.w	r7, 8[r29]
    10c0:	7d 47 05 00 	st.w	r8, 4[r29]
    10c4:	7d 4f 01 00 	st.w	r9, 0[r29]
    10c8:	3d 57 05 00 	ld.w	4[r29], r10
    10cc:	60 52       	cmp	0, r10
    10ce:	ba 05       	bne	10d4 <_athrill_comm_write+0x2a>
    10d0:	01 52       	mov	1, r10
    10d2:	b5 65       	br	1198 <_athrill_comm_write+0xee>
    10d4:	3d 57 0d 00 	ld.w	12[r29], r10
    10d8:	61 52       	cmp	1, r10
    10da:	b3 05       	bnh	10e0 <_athrill_comm_write+0x36>
    10dc:	01 52       	mov	1, r10
    10de:	d5 5d       	br	1198 <_athrill_comm_write+0xee>
    10e0:	3d 57 0d 00 	ld.w	12[r29], r10
    10e4:	c5 52       	shl	5, r10
    10e6:	2b 06 90 70 	mov	0x5ff7090, r11
    10ea:	ff 05 
    10ec:	cb 51       	add	r11, r10
    10ee:	7d 57 15 00 	st.w	r10, 20[r29]
    10f2:	3d 57 15 00 	ld.w	20[r29], r10
    10f6:	2a 5f 01 00 	ld.w	0[r10], r11
    10fa:	3d 57 09 00 	ld.w	8[r29], r10
    10fe:	ea 59       	cmp	r10, r11
    1100:	bb 05       	bh	1106 <_athrill_comm_write+0x5c>
    1102:	01 52       	mov	1, r10
    1104:	a5 4d       	br	1198 <_athrill_comm_write+0xee>
    1106:	3d 57 15 00 	ld.w	20[r29], r10
    110a:	2a 5f 0d 00 	ld.w	12[r10], r11
    110e:	3d 57 09 00 	ld.w	8[r29], r10
    1112:	c2 52       	shl	2, r10
    1114:	cb 51       	add	r11, r10
    1116:	2a 5f 01 00 	ld.w	0[r10], r11
    111a:	3d 57 01 00 	ld.w	0[r29], r10
    111e:	ea 59       	cmp	r10, r11
    1120:	b2 05       	be	1126 <_athrill_comm_write+0x7c>
    1122:	01 52       	mov	1, r10
    1124:	a5 3d       	br	1198 <_athrill_comm_write+0xee>
    1126:	3d 57 15 00 	ld.w	20[r29], r10
    112a:	2a 5f 09 00 	ld.w	8[r10], r11
    112e:	3d 57 09 00 	ld.w	8[r29], r10
    1132:	c2 52       	shl	2, r10
    1134:	cb 51       	add	r11, r10
    1136:	2a 5f 01 00 	ld.w	0[r10], r11
    113a:	3d 57 15 00 	ld.w	20[r29], r10
    113e:	2a 57 05 00 	ld.w	4[r10], r10
    1142:	2a 57 39 00 	ld.w	56[r10], r10
    1146:	8b 51       	subr	r11, r10
    1148:	7d 57 11 00 	st.w	r10, 16[r29]
    114c:	3d 37 0d 00 	ld.w	12[r29], r6
    1150:	2a 06 ba 1a 	mov	0x1aba, r10
    1154:	00 00 
    1156:	80 ff 04 00 	jarl	115a <_athrill_comm_write+0xb0>, lp
    115a:	44 fa       	add	4, lp
    115c:	6a 00       	jmp	[r10]
    115e:	3d 57 15 00 	ld.w	20[r29], r10
    1162:	2a 5f 1d 00 	ld.w	28[r10], r11
    1166:	3d 57 11 00 	ld.w	16[r29], r10
    116a:	cb 51       	add	r11, r10
    116c:	0a 30       	mov	r10, r6
    116e:	3d 3f 05 00 	ld.w	4[r29], r7
    1172:	3d 47 01 00 	ld.w	0[r29], r8
    1176:	2a 06 1e 1b 	mov	0x1b1e, r10
    117a:	00 00 
    117c:	80 ff 04 00 	jarl	1180 <_athrill_comm_write+0xd6>, lp
    1180:	44 fa       	add	4, lp
    1182:	6a 00       	jmp	[r10]
    1184:	3d 37 0d 00 	ld.w	12[r29], r6
    1188:	2a 06 ec 1a 	mov	0x1aec, r10
    118c:	00 00 
    118e:	80 ff 04 00 	jarl	1192 <_athrill_comm_write+0xe8>, lp
    1192:	44 fa       	add	4, lp
    1194:	6a 00       	jmp	[r10]
    1196:	00 52       	mov	0, r10
    1198:	1d 18       	mov	r29, sp
    119a:	23 ff 1d 00 	ld.w	28[sp], lp
    119e:	23 ef 19 00 	ld.w	24[sp], r29
    11a2:	03 1e 20 00 	addi	32, sp, sp
    11a6:	7f 00       	jmp	[lp]

000011a8 <_athrill_comm_read>:
    11a8:	03 1e dc ff 	addi	-36, sp, sp
    11ac:	63 ff 21 00 	st.w	lp, 32[sp]
    11b0:	63 ef 1d 00 	st.w	r29, 28[sp]
    11b4:	03 e8       	mov	sp, r29
    11b6:	7d 37 0d 00 	st.w	r6, 12[r29]
    11ba:	7d 3f 09 00 	st.w	r7, 8[r29]
    11be:	7d 47 05 00 	st.w	r8, 4[r29]
    11c2:	7d 4f 01 00 	st.w	r9, 0[r29]
    11c6:	7d 07 19 00 	st.w	r0, 24[r29]
    11ca:	3d 57 05 00 	ld.w	4[r29], r10
    11ce:	60 52       	cmp	0, r10
    11d0:	da 05       	bne	11da <_athrill_comm_read+0x32>
    11d2:	01 52       	mov	1, r10
    11d4:	7d 57 19 00 	st.w	r10, 24[r29]
    11d8:	85 6d       	br	12a8 <_athrill_comm_read+0x100>
    11da:	3d 57 0d 00 	ld.w	12[r29], r10
    11de:	61 52       	cmp	1, r10
    11e0:	d3 05       	bnh	11ea <_athrill_comm_read+0x42>
    11e2:	01 52       	mov	1, r10
    11e4:	7d 57 19 00 	st.w	r10, 24[r29]
    11e8:	85 65       	br	12a8 <_athrill_comm_read+0x100>
    11ea:	3d 57 0d 00 	ld.w	12[r29], r10
    11ee:	c5 52       	shl	5, r10
    11f0:	2b 06 90 70 	mov	0x5ff7090, r11
    11f4:	ff 05 
    11f6:	cb 51       	add	r11, r10
    11f8:	7d 57 15 00 	st.w	r10, 20[r29]
    11fc:	3d 57 15 00 	ld.w	20[r29], r10
    1200:	2a 5f 01 00 	ld.w	0[r10], r11
    1204:	3d 57 09 00 	ld.w	8[r29], r10
    1208:	ea 59       	cmp	r10, r11
    120a:	db 05       	bh	1214 <_athrill_comm_read+0x6c>
    120c:	01 52       	mov	1, r10
    120e:	7d 57 19 00 	st.w	r10, 24[r29]
    1212:	b5 4d       	br	12a8 <_athrill_comm_read+0x100>
    1214:	3d 57 15 00 	ld.w	20[r29], r10
    1218:	2a 5f 0d 00 	ld.w	12[r10], r11
    121c:	3d 57 09 00 	ld.w	8[r29], r10
    1220:	c2 52       	shl	2, r10
    1222:	cb 51       	add	r11, r10
    1224:	2a 5f 01 00 	ld.w	0[r10], r11
    1228:	3d 57 01 00 	ld.w	0[r29], r10
    122c:	ea 59       	cmp	r10, r11
    122e:	d2 05       	be	1238 <_athrill_comm_read+0x90>
    1230:	01 52       	mov	1, r10
    1232:	7d 57 19 00 	st.w	r10, 24[r29]
    1236:	95 3d       	br	12a8 <_athrill_comm_read+0x100>
    1238:	3d 57 15 00 	ld.w	20[r29], r10
    123c:	2a 5f 09 00 	ld.w	8[r10], r11
    1240:	3d 57 09 00 	ld.w	8[r29], r10
    1244:	c2 52       	shl	2, r10
    1246:	cb 51       	add	r11, r10
    1248:	2a 5f 01 00 	ld.w	0[r10], r11
    124c:	3d 57 15 00 	ld.w	20[r29], r10
    1250:	2a 57 05 00 	ld.w	4[r10], r10
    1254:	2a 57 39 00 	ld.w	56[r10], r10
    1258:	8b 51       	subr	r11, r10
    125a:	7d 57 11 00 	st.w	r10, 16[r29]
    125e:	3d 37 0d 00 	ld.w	12[r29], r6
    1262:	2a 06 ba 1a 	mov	0x1aba, r10
    1266:	00 00 
    1268:	80 ff 04 00 	jarl	126c <_athrill_comm_read+0xc4>, lp
    126c:	44 fa       	add	4, lp
    126e:	6a 00       	jmp	[r10]
    1270:	3d 57 15 00 	ld.w	20[r29], r10
    1274:	2a 5f 1d 00 	ld.w	28[r10], r11
    1278:	3d 57 11 00 	ld.w	16[r29], r10
    127c:	cb 51       	add	r11, r10
    127e:	3d 37 05 00 	ld.w	4[r29], r6
    1282:	0a 38       	mov	r10, r7
    1284:	3d 47 01 00 	ld.w	0[r29], r8
    1288:	2a 06 1e 1b 	mov	0x1b1e, r10
    128c:	00 00 
    128e:	80 ff 04 00 	jarl	1292 <_athrill_comm_read+0xea>, lp
    1292:	44 fa       	add	4, lp
    1294:	6a 00       	jmp	[r10]
    1296:	3d 37 0d 00 	ld.w	12[r29], r6
    129a:	2a 06 ec 1a 	mov	0x1aec, r10
    129e:	00 00 
    12a0:	80 ff 04 00 	jarl	12a4 <_athrill_comm_read+0xfc>, lp
    12a4:	44 fa       	add	4, lp
    12a6:	6a 00       	jmp	[r10]
    12a8:	3d 57 19 00 	ld.w	24[r29], r10
    12ac:	1d 18       	mov	r29, sp
    12ae:	23 ff 21 00 	ld.w	32[sp], lp
    12b2:	23 ef 1d 00 	ld.w	28[sp], r29
    12b6:	03 1e 24 00 	addi	36, sp, sp
    12ba:	7f 00       	jmp	[lp]

000012bc <_athrill_comm_check>:
    12bc:	03 1e ec ff 	addi	-20, sp, sp
    12c0:	63 ef 11 00 	st.w	r29, 16[sp]
    12c4:	03 e8       	mov	sp, r29
    12c6:	7d 37 09 00 	st.w	r6, 8[r29]
    12ca:	7d 3f 05 00 	st.w	r7, 4[r29]
    12ce:	7d 47 01 00 	st.w	r8, 0[r29]
    12d2:	3d 57 01 00 	ld.w	0[r29], r10
    12d6:	60 52       	cmp	0, r10
    12d8:	ba 05       	bne	12de <_athrill_comm_check+0x22>
    12da:	01 52       	mov	1, r10
    12dc:	b5 1d       	br	1312 <_athrill_comm_check+0x56>
    12de:	3d 57 09 00 	ld.w	8[r29], r10
    12e2:	61 52       	cmp	1, r10
    12e4:	b3 05       	bnh	12ea <_athrill_comm_check+0x2e>
    12e6:	01 52       	mov	1, r10
    12e8:	d5 15       	br	1312 <_athrill_comm_check+0x56>
    12ea:	3d 57 09 00 	ld.w	8[r29], r10
    12ee:	c5 52       	shl	5, r10
    12f0:	2b 06 90 70 	mov	0x5ff7090, r11
    12f4:	ff 05 
    12f6:	cb 51       	add	r11, r10
    12f8:	7d 57 0d 00 	st.w	r10, 12[r29]
    12fc:	3d 57 0d 00 	ld.w	12[r29], r10
    1300:	2a 5f 01 00 	ld.w	0[r10], r11
    1304:	3d 57 05 00 	ld.w	4[r29], r10
    1308:	ea 59       	cmp	r10, r11
    130a:	bb 05       	bh	1310 <_athrill_comm_check+0x54>
    130c:	01 52       	mov	1, r10
    130e:	a5 05       	br	1312 <_athrill_comm_check+0x56>
    1310:	00 52       	mov	0, r10
    1312:	1d 18       	mov	r29, sp
    1314:	23 ef 11 00 	ld.w	16[sp], r29
    1318:	03 1e 14 00 	addi	20, sp, sp
    131c:	7f 00       	jmp	[lp]

0000131e <_athrill_comm_send_common>:
    131e:	03 1e d0 ff 	addi	-48, sp, sp
    1322:	63 ff 2d 00 	st.w	lp, 44[sp]
    1326:	63 ef 29 00 	st.w	r29, 40[sp]
    132a:	03 e8       	mov	sp, r29
    132c:	7d 37 11 00 	st.w	r6, 16[r29]
    1330:	7d 3f 0d 00 	st.w	r7, 12[r29]
    1334:	7d 47 09 00 	st.w	r8, 8[r29]
    1338:	7d 4f 05 00 	st.w	r9, 4[r29]
    133c:	3d 57 31 00 	ld.w	48[r29], r10
    1340:	5d 57 00 00 	st.b	r10, 0[r29]
    1344:	7d 07 25 00 	st.w	r0, 36[r29]
    1348:	3d 37 11 00 	ld.w	16[r29], r6
    134c:	2a 06 ba 1a 	mov	0x1aba, r10
    1350:	00 00 
    1352:	80 ff 04 00 	jarl	1356 <_athrill_comm_send_common+0x38>, lp
    1356:	44 fa       	add	4, lp
    1358:	6a 00       	jmp	[r10]
    135a:	3d 37 11 00 	ld.w	16[r29], r6
    135e:	3d 3f 0d 00 	ld.w	12[r29], r7
    1362:	3d 47 09 00 	ld.w	8[r29], r8
    1366:	2a 06 bc 12 	mov	0x12bc, r10
    136a:	00 00 
    136c:	80 ff 04 00 	jarl	1370 <_athrill_comm_send_common+0x52>, lp
    1370:	44 fa       	add	4, lp
    1372:	6a 00       	jmp	[r10]
    1374:	7d 57 25 00 	st.w	r10, 36[r29]
    1378:	3d 57 25 00 	ld.w	36[r29], r10
    137c:	60 52       	cmp	0, r10
    137e:	b2 05       	be	1384 <_athrill_comm_send_common+0x66>
    1380:	80 07 70 01 	jr	14f0 <_athrill_comm_send_common+0x1d2>
    1384:	3d 57 11 00 	ld.w	16[r29], r10
    1388:	c5 52       	shl	5, r10
    138a:	2b 06 90 70 	mov	0x5ff7090, r11
    138e:	ff 05 
    1390:	cb 51       	add	r11, r10
    1392:	7d 57 21 00 	st.w	r10, 32[r29]
    1396:	3d 57 21 00 	ld.w	32[r29], r10
    139a:	2a 5f 09 00 	ld.w	8[r10], r11
    139e:	3d 57 0d 00 	ld.w	12[r29], r10
    13a2:	c2 52       	shl	2, r10
    13a4:	cb 51       	add	r11, r10
    13a6:	2a 5f 01 00 	ld.w	0[r10], r11
    13aa:	3d 57 21 00 	ld.w	32[r29], r10
    13ae:	2a 57 05 00 	ld.w	4[r10], r10
    13b2:	2a 57 39 00 	ld.w	56[r10], r10
    13b6:	8b 51       	subr	r11, r10
    13b8:	7d 57 1d 00 	st.w	r10, 28[r29]
    13bc:	3d 57 21 00 	ld.w	32[r29], r10
    13c0:	2a 5f 1d 00 	ld.w	28[r10], r11
    13c4:	3d 57 1d 00 	ld.w	28[r29], r10
    13c8:	cb 51       	add	r11, r10
    13ca:	7d 57 19 00 	st.w	r10, 24[r29]
    13ce:	3d 57 19 00 	ld.w	24[r29], r10
    13d2:	2a 5f 05 00 	ld.w	4[r10], r11
    13d6:	3d 57 05 00 	ld.w	4[r29], r10
    13da:	ea 59       	cmp	r10, r11
    13dc:	e2 05       	be	13e8 <_athrill_comm_send_common+0xca>
    13de:	01 52       	mov	1, r10
    13e0:	7d 57 25 00 	st.w	r10, 36[r29]
    13e4:	80 07 0c 01 	jr	14f0 <_athrill_comm_send_common+0x1d2>
    13e8:	9d 57 01 00 	ld.bu	0[r29], r10
    13ec:	61 52       	cmp	1, r10
    13ee:	f2 05       	be	13fc <_athrill_comm_send_common+0xde>
    13f0:	3d 57 19 00 	ld.w	24[r29], r10
    13f4:	2a 57 09 00 	ld.w	8[r10], r10
    13f8:	60 52       	cmp	0, r10
    13fa:	da 55       	bne	14a4 <_athrill_comm_send_common+0x186>
    13fc:	3d 57 19 00 	ld.w	24[r29], r10
    1400:	2a 5f 09 00 	ld.w	8[r10], r11
    1404:	3d 57 19 00 	ld.w	24[r29], r10
    1408:	2a 57 01 00 	ld.w	0[r10], r10
    140c:	ea 59       	cmp	r10, r11
    140e:	d1 05       	bl	1418 <_athrill_comm_send_common+0xfa>
    1410:	03 52       	mov	3, r10
    1412:	7d 57 25 00 	st.w	r10, 36[r29]
    1416:	d5 6d       	br	14f0 <_athrill_comm_send_common+0x1d2>
    1418:	3d 57 19 00 	ld.w	24[r29], r10
    141c:	2a 5f 0d 00 	ld.w	12[r10], r11
    1420:	3d 57 19 00 	ld.w	24[r29], r10
    1424:	2a 57 05 00 	ld.w	4[r10], r10
    1428:	eb 57 20 02 	mul	r11, r10, r0
    142c:	7d 57 15 00 	st.w	r10, 20[r29]
    1430:	3d 57 15 00 	ld.w	20[r29], r10
    1434:	0a 56 14 00 	addi	20, r10, r10
    1438:	3d 5f 19 00 	ld.w	24[r29], r11
    143c:	ca 59       	add	r10, r11
    143e:	3d 57 19 00 	ld.w	24[r29], r10
    1442:	2a 57 05 00 	ld.w	4[r10], r10
    1446:	0b 30       	mov	r11, r6
    1448:	3d 3f 09 00 	ld.w	8[r29], r7
    144c:	0a 40       	mov	r10, r8
    144e:	2a 06 1e 1b 	mov	0x1b1e, r10
    1452:	00 00 
    1454:	80 ff 04 00 	jarl	1458 <_athrill_comm_send_common+0x13a>, lp
    1458:	44 fa       	add	4, lp
    145a:	6a 00       	jmp	[r10]
    145c:	3d 57 19 00 	ld.w	24[r29], r10
    1460:	2a 57 09 00 	ld.w	8[r10], r10
    1464:	0a 5e 01 00 	addi	1, r10, r11
    1468:	3d 57 19 00 	ld.w	24[r29], r10
    146c:	6a 5f 09 00 	st.w	r11, 8[r10]
    1470:	3d 57 19 00 	ld.w	24[r29], r10
    1474:	2a 57 0d 00 	ld.w	12[r10], r10
    1478:	0a 5e 01 00 	addi	1, r10, r11
    147c:	3d 57 19 00 	ld.w	24[r29], r10
    1480:	6a 5f 0d 00 	st.w	r11, 12[r10]
    1484:	3d 57 19 00 	ld.w	24[r29], r10
    1488:	2a 5f 0d 00 	ld.w	12[r10], r11
    148c:	3d 57 19 00 	ld.w	24[r29], r10
    1490:	2a 57 01 00 	ld.w	0[r10], r10
    1494:	ea 59       	cmp	r10, r11
    1496:	e1 05       	bl	14a2 <_athrill_comm_send_common+0x184>
    1498:	3d 57 19 00 	ld.w	24[r29], r10
    149c:	6a 07 0d 00 	st.w	r0, 12[r10]
    14a0:	85 2d       	br	14f0 <_athrill_comm_send_common+0x1d2>
    14a2:	f5 25       	br	14f0 <_athrill_comm_send_common+0x1d2>
    14a4:	7d 07 15 00 	st.w	r0, 20[r29]
    14a8:	3d 57 15 00 	ld.w	20[r29], r10
    14ac:	0a 56 14 00 	addi	20, r10, r10
    14b0:	3d 5f 19 00 	ld.w	24[r29], r11
    14b4:	ca 59       	add	r10, r11
    14b6:	3d 57 19 00 	ld.w	24[r29], r10
    14ba:	2a 57 05 00 	ld.w	4[r10], r10
    14be:	0b 30       	mov	r11, r6
    14c0:	3d 3f 09 00 	ld.w	8[r29], r7
    14c4:	0a 40       	mov	r10, r8
    14c6:	2a 06 1e 1b 	mov	0x1b1e, r10
    14ca:	00 00 
    14cc:	80 ff 04 00 	jarl	14d0 <_athrill_comm_send_common+0x1b2>, lp
    14d0:	44 fa       	add	4, lp
    14d2:	6a 00       	jmp	[r10]
    14d4:	3d 57 19 00 	ld.w	24[r29], r10
    14d8:	01 5a       	mov	1, r11
    14da:	6a 5f 09 00 	st.w	r11, 8[r10]
    14de:	3d 57 19 00 	ld.w	24[r29], r10
    14e2:	01 5a       	mov	1, r11
    14e4:	6a 5f 0d 00 	st.w	r11, 12[r10]
    14e8:	3d 57 19 00 	ld.w	24[r29], r10
    14ec:	6a 07 11 00 	st.w	r0, 16[r10]
    14f0:	3d 37 11 00 	ld.w	16[r29], r6
    14f4:	2a 06 ec 1a 	mov	0x1aec, r10
    14f8:	00 00 
    14fa:	80 ff 04 00 	jarl	14fe <_athrill_comm_send_common+0x1e0>, lp
    14fe:	44 fa       	add	4, lp
    1500:	6a 00       	jmp	[r10]
    1502:	3d 57 25 00 	ld.w	36[r29], r10
    1506:	1d 18       	mov	r29, sp
    1508:	23 ff 2d 00 	ld.w	44[sp], lp
    150c:	23 ef 29 00 	ld.w	40[sp], r29
    1510:	03 1e 30 00 	addi	48, sp, sp
    1514:	7f 00       	jmp	[lp]

00001516 <_athrill_comm_recv_common>:
    1516:	03 1e d0 ff 	addi	-48, sp, sp
    151a:	63 ff 2d 00 	st.w	lp, 44[sp]
    151e:	63 ef 29 00 	st.w	r29, 40[sp]
    1522:	03 e8       	mov	sp, r29
    1524:	7d 37 11 00 	st.w	r6, 16[r29]
    1528:	7d 3f 0d 00 	st.w	r7, 12[r29]
    152c:	7d 47 09 00 	st.w	r8, 8[r29]
    1530:	7d 4f 05 00 	st.w	r9, 4[r29]
    1534:	3d 57 31 00 	ld.w	48[r29], r10
    1538:	5d 57 00 00 	st.b	r10, 0[r29]
    153c:	7d 07 25 00 	st.w	r0, 36[r29]
    1540:	3d 37 11 00 	ld.w	16[r29], r6
    1544:	2a 06 ba 1a 	mov	0x1aba, r10
    1548:	00 00 
    154a:	80 ff 04 00 	jarl	154e <_athrill_comm_recv_common+0x38>, lp
    154e:	44 fa       	add	4, lp
    1550:	6a 00       	jmp	[r10]
    1552:	3d 37 11 00 	ld.w	16[r29], r6
    1556:	3d 3f 0d 00 	ld.w	12[r29], r7
    155a:	3d 47 09 00 	ld.w	8[r29], r8
    155e:	2a 06 bc 12 	mov	0x12bc, r10
    1562:	00 00 
    1564:	80 ff 04 00 	jarl	1568 <_athrill_comm_recv_common+0x52>, lp
    1568:	44 fa       	add	4, lp
    156a:	6a 00       	jmp	[r10]
    156c:	7d 57 25 00 	st.w	r10, 36[r29]
    1570:	3d 57 25 00 	ld.w	36[r29], r10
    1574:	60 52       	cmp	0, r10
    1576:	b2 05       	be	157c <_athrill_comm_recv_common+0x66>
    1578:	80 07 0a 01 	jr	1682 <_athrill_comm_recv_common+0x16c>
    157c:	3d 57 11 00 	ld.w	16[r29], r10
    1580:	c5 52       	shl	5, r10
    1582:	2b 06 90 70 	mov	0x5ff7090, r11
    1586:	ff 05 
    1588:	cb 51       	add	r11, r10
    158a:	7d 57 21 00 	st.w	r10, 32[r29]
    158e:	3d 57 21 00 	ld.w	32[r29], r10
    1592:	2a 5f 09 00 	ld.w	8[r10], r11
    1596:	3d 57 0d 00 	ld.w	12[r29], r10
    159a:	c2 52       	shl	2, r10
    159c:	cb 51       	add	r11, r10
    159e:	2a 5f 01 00 	ld.w	0[r10], r11
    15a2:	3d 57 21 00 	ld.w	32[r29], r10
    15a6:	2a 57 05 00 	ld.w	4[r10], r10
    15aa:	2a 57 39 00 	ld.w	56[r10], r10
    15ae:	8b 51       	subr	r11, r10
    15b0:	7d 57 1d 00 	st.w	r10, 28[r29]
    15b4:	3d 57 21 00 	ld.w	32[r29], r10
    15b8:	2a 5f 1d 00 	ld.w	28[r10], r11
    15bc:	3d 57 1d 00 	ld.w	28[r29], r10
    15c0:	cb 51       	add	r11, r10
    15c2:	7d 57 19 00 	st.w	r10, 24[r29]
    15c6:	3d 57 19 00 	ld.w	24[r29], r10
    15ca:	2a 5f 05 00 	ld.w	4[r10], r11
    15ce:	3d 57 05 00 	ld.w	4[r29], r10
    15d2:	ea 59       	cmp	r10, r11
    15d4:	d2 05       	be	15de <_athrill_comm_recv_common+0xc8>
    15d6:	01 52       	mov	1, r10
    15d8:	7d 57 25 00 	st.w	r10, 36[r29]
    15dc:	b5 55       	br	1682 <_athrill_comm_recv_common+0x16c>
    15de:	3d 57 19 00 	ld.w	24[r29], r10
    15e2:	2a 57 09 00 	ld.w	8[r10], r10
    15e6:	60 52       	cmp	0, r10
    15e8:	da 05       	bne	15f2 <_athrill_comm_recv_common+0xdc>
    15ea:	02 52       	mov	2, r10
    15ec:	7d 57 25 00 	st.w	r10, 36[r29]
    15f0:	95 4d       	br	1682 <_athrill_comm_recv_common+0x16c>
    15f2:	3d 57 19 00 	ld.w	24[r29], r10
    15f6:	2a 5f 11 00 	ld.w	16[r10], r11
    15fa:	3d 57 19 00 	ld.w	24[r29], r10
    15fe:	2a 57 05 00 	ld.w	4[r10], r10
    1602:	eb 57 20 02 	mul	r11, r10, r0
    1606:	7d 57 15 00 	st.w	r10, 20[r29]
    160a:	3d 57 15 00 	ld.w	20[r29], r10
    160e:	0a 56 14 00 	addi	20, r10, r10
    1612:	3d 5f 19 00 	ld.w	24[r29], r11
    1616:	ca 59       	add	r10, r11
    1618:	3d 57 19 00 	ld.w	24[r29], r10
    161c:	2a 57 05 00 	ld.w	4[r10], r10
    1620:	3d 37 09 00 	ld.w	8[r29], r6
    1624:	0b 38       	mov	r11, r7
    1626:	0a 40       	mov	r10, r8
    1628:	2a 06 1e 1b 	mov	0x1b1e, r10
    162c:	00 00 
    162e:	80 ff 04 00 	jarl	1632 <_athrill_comm_recv_common+0x11c>, lp
    1632:	44 fa       	add	4, lp
    1634:	6a 00       	jmp	[r10]
    1636:	9d 57 01 00 	ld.bu	0[r29], r10
    163a:	61 52       	cmp	1, r10
    163c:	ba 25       	bne	1682 <_athrill_comm_recv_common+0x16c>
    163e:	3d 57 19 00 	ld.w	24[r29], r10
    1642:	2a 57 09 00 	ld.w	8[r10], r10
    1646:	0a 5e ff ff 	addi	-1, r10, r11
    164a:	3d 57 19 00 	ld.w	24[r29], r10
    164e:	6a 5f 09 00 	st.w	r11, 8[r10]
    1652:	3d 57 19 00 	ld.w	24[r29], r10
    1656:	2a 57 11 00 	ld.w	16[r10], r10
    165a:	0a 5e ff ff 	addi	-1, r10, r11
    165e:	3d 57 19 00 	ld.w	24[r29], r10
    1662:	6a 5f 11 00 	st.w	r11, 16[r10]
    1666:	3d 57 19 00 	ld.w	24[r29], r10
    166a:	2a 5f 11 00 	ld.w	16[r10], r11
    166e:	3d 57 19 00 	ld.w	24[r29], r10
    1672:	2a 57 01 00 	ld.w	0[r10], r10
    1676:	ea 59       	cmp	r10, r11
    1678:	d1 05       	bl	1682 <_athrill_comm_recv_common+0x16c>
    167a:	3d 57 19 00 	ld.w	24[r29], r10
    167e:	6a 07 11 00 	st.w	r0, 16[r10]
    1682:	3d 37 11 00 	ld.w	16[r29], r6
    1686:	2a 06 ec 1a 	mov	0x1aec, r10
    168a:	00 00 
    168c:	80 ff 04 00 	jarl	1690 <_athrill_comm_recv_common+0x17a>, lp
    1690:	44 fa       	add	4, lp
    1692:	6a 00       	jmp	[r10]
    1694:	3d 57 25 00 	ld.w	36[r29], r10
    1698:	1d 18       	mov	r29, sp
    169a:	23 ff 2d 00 	ld.w	44[sp], lp
    169e:	23 ef 29 00 	ld.w	40[sp], r29
    16a2:	03 1e 30 00 	addi	48, sp, sp
    16a6:	7f 00       	jmp	[lp]

000016a8 <_athrill_comm_send>:
    16a8:	03 1e e4 ff 	addi	-28, sp, sp
    16ac:	63 ff 19 00 	st.w	lp, 24[sp]
    16b0:	63 ef 15 00 	st.w	r29, 20[sp]
    16b4:	03 e8       	mov	sp, r29
    16b6:	7d 37 11 00 	st.w	r6, 16[r29]
    16ba:	7d 3f 0d 00 	st.w	r7, 12[r29]
    16be:	7d 47 09 00 	st.w	r8, 8[r29]
    16c2:	7d 4f 05 00 	st.w	r9, 4[r29]
    16c6:	01 52       	mov	1, r10
    16c8:	63 57 01 00 	st.w	r10, 0[sp]
    16cc:	3d 37 11 00 	ld.w	16[r29], r6
    16d0:	3d 3f 0d 00 	ld.w	12[r29], r7
    16d4:	3d 47 09 00 	ld.w	8[r29], r8
    16d8:	3d 4f 05 00 	ld.w	4[r29], r9
    16dc:	2a 06 1e 13 	mov	0x131e, r10
    16e0:	00 00 
    16e2:	80 ff 04 00 	jarl	16e6 <_athrill_comm_send+0x3e>, lp
    16e6:	44 fa       	add	4, lp
    16e8:	6a 00       	jmp	[r10]
    16ea:	1d 18       	mov	r29, sp
    16ec:	23 ff 19 00 	ld.w	24[sp], lp
    16f0:	23 ef 15 00 	ld.w	20[sp], r29
    16f4:	03 1e 1c 00 	addi	28, sp, sp
    16f8:	7f 00       	jmp	[lp]

000016fa <_athrill_comm_send_force>:
    16fa:	03 1e e4 ff 	addi	-28, sp, sp
    16fe:	63 ff 19 00 	st.w	lp, 24[sp]
    1702:	63 ef 15 00 	st.w	r29, 20[sp]
    1706:	03 e8       	mov	sp, r29
    1708:	7d 37 11 00 	st.w	r6, 16[r29]
    170c:	7d 3f 0d 00 	st.w	r7, 12[r29]
    1710:	7d 47 09 00 	st.w	r8, 8[r29]
    1714:	7d 4f 05 00 	st.w	r9, 4[r29]
    1718:	01 52       	mov	1, r10
    171a:	63 57 01 00 	st.w	r10, 0[sp]
    171e:	3d 37 11 00 	ld.w	16[r29], r6
    1722:	3d 3f 0d 00 	ld.w	12[r29], r7
    1726:	3d 47 09 00 	ld.w	8[r29], r8
    172a:	3d 4f 05 00 	ld.w	4[r29], r9
    172e:	2a 06 1e 13 	mov	0x131e, r10
    1732:	00 00 
    1734:	80 ff 04 00 	jarl	1738 <_athrill_comm_send_force+0x3e>, lp
    1738:	44 fa       	add	4, lp
    173a:	6a 00       	jmp	[r10]
    173c:	1d 18       	mov	r29, sp
    173e:	23 ff 19 00 	ld.w	24[sp], lp
    1742:	23 ef 15 00 	ld.w	20[sp], r29
    1746:	03 1e 1c 00 	addi	28, sp, sp
    174a:	7f 00       	jmp	[lp]

0000174c <_athrill_comm_recv>:
    174c:	03 1e e4 ff 	addi	-28, sp, sp
    1750:	63 ff 19 00 	st.w	lp, 24[sp]
    1754:	63 ef 15 00 	st.w	r29, 20[sp]
    1758:	03 e8       	mov	sp, r29
    175a:	7d 37 11 00 	st.w	r6, 16[r29]
    175e:	7d 3f 0d 00 	st.w	r7, 12[r29]
    1762:	7d 47 09 00 	st.w	r8, 8[r29]
    1766:	7d 4f 05 00 	st.w	r9, 4[r29]
    176a:	01 52       	mov	1, r10
    176c:	63 57 01 00 	st.w	r10, 0[sp]
    1770:	3d 37 11 00 	ld.w	16[r29], r6
    1774:	3d 3f 0d 00 	ld.w	12[r29], r7
    1778:	3d 47 09 00 	ld.w	8[r29], r8
    177c:	3d 4f 05 00 	ld.w	4[r29], r9
    1780:	2a 06 16 15 	mov	0x1516, r10
    1784:	00 00 
    1786:	80 ff 04 00 	jarl	178a <_athrill_comm_recv+0x3e>, lp
    178a:	44 fa       	add	4, lp
    178c:	6a 00       	jmp	[r10]
    178e:	1d 18       	mov	r29, sp
    1790:	23 ff 19 00 	ld.w	24[sp], lp
    1794:	23 ef 15 00 	ld.w	20[sp], r29
    1798:	03 1e 1c 00 	addi	28, sp, sp
    179c:	7f 00       	jmp	[lp]

0000179e <_athrill_comm_peek>:
    179e:	03 1e e4 ff 	addi	-28, sp, sp
    17a2:	63 ff 19 00 	st.w	lp, 24[sp]
    17a6:	63 ef 15 00 	st.w	r29, 20[sp]
    17aa:	03 e8       	mov	sp, r29
    17ac:	7d 37 11 00 	st.w	r6, 16[r29]
    17b0:	7d 3f 0d 00 	st.w	r7, 12[r29]
    17b4:	7d 47 09 00 	st.w	r8, 8[r29]
    17b8:	7d 4f 05 00 	st.w	r9, 4[r29]
    17bc:	01 52       	mov	1, r10
    17be:	63 57 01 00 	st.w	r10, 0[sp]
    17c2:	3d 37 11 00 	ld.w	16[r29], r6
    17c6:	3d 3f 0d 00 	ld.w	12[r29], r7
    17ca:	3d 47 09 00 	ld.w	8[r29], r8
    17ce:	3d 4f 05 00 	ld.w	4[r29], r9
    17d2:	2a 06 16 15 	mov	0x1516, r10
    17d6:	00 00 
    17d8:	80 ff 04 00 	jarl	17dc <_athrill_comm_peek+0x3e>, lp
    17dc:	44 fa       	add	4, lp
    17de:	6a 00       	jmp	[r10]
    17e0:	1d 18       	mov	r29, sp
    17e2:	23 ff 19 00 	ld.w	24[sp], lp
    17e6:	23 ef 15 00 	ld.w	20[sp], r29
    17ea:	03 1e 1c 00 	addi	28, sp, sp
    17ee:	7f 00       	jmp	[lp]

000017f0 <_athrill_comm_is_arrived>:
    17f0:	03 1e e4 ff 	addi	-28, sp, sp
    17f4:	63 ef 19 00 	st.w	r29, 24[sp]
    17f8:	03 e8       	mov	sp, r29
    17fa:	7d 37 05 00 	st.w	r6, 4[r29]
    17fe:	7d 3f 01 00 	st.w	r7, 0[r29]
    1802:	01 52       	mov	1, r10
    1804:	5d 57 17 00 	st.b	r10, 23[r29]
    1808:	3d 57 05 00 	ld.w	4[r29], r10
    180c:	61 52       	cmp	1, r10
    180e:	b3 05       	bnh	1814 <_athrill_comm_is_arrived+0x24>
    1810:	01 52       	mov	1, r10
    1812:	85 4d       	br	18a2 <_athrill_comm_is_arrived+0xb2>
    1814:	3d 57 05 00 	ld.w	4[r29], r10
    1818:	c5 52       	shl	5, r10
    181a:	2b 06 90 70 	mov	0x5ff7090, r11
    181e:	ff 05 
    1820:	cb 51       	add	r11, r10
    1822:	7d 57 11 00 	st.w	r10, 16[r29]
    1826:	3d 57 11 00 	ld.w	16[r29], r10
    182a:	2a 5f 01 00 	ld.w	0[r10], r11
    182e:	3d 57 01 00 	ld.w	0[r29], r10
    1832:	ea 59       	cmp	r10, r11
    1834:	bb 05       	bh	183a <_athrill_comm_is_arrived+0x4a>
    1836:	01 52       	mov	1, r10
    1838:	d5 35       	br	18a2 <_athrill_comm_is_arrived+0xb2>
    183a:	3d 57 05 00 	ld.w	4[r29], r10
    183e:	c5 52       	shl	5, r10
    1840:	2b 06 90 70 	mov	0x5ff7090, r11
    1844:	ff 05 
    1846:	cb 51       	add	r11, r10
    1848:	7d 57 11 00 	st.w	r10, 16[r29]
    184c:	3d 57 11 00 	ld.w	16[r29], r10
    1850:	2a 5f 09 00 	ld.w	8[r10], r11
    1854:	3d 57 01 00 	ld.w	0[r29], r10
    1858:	c2 52       	shl	2, r10
    185a:	cb 51       	add	r11, r10
    185c:	2a 5f 01 00 	ld.w	0[r10], r11
    1860:	3d 57 11 00 	ld.w	16[r29], r10
    1864:	2a 57 05 00 	ld.w	4[r10], r10
    1868:	2a 57 39 00 	ld.w	56[r10], r10
    186c:	8b 51       	subr	r11, r10
    186e:	7d 57 0d 00 	st.w	r10, 12[r29]
    1872:	3d 57 11 00 	ld.w	16[r29], r10
    1876:	2a 5f 1d 00 	ld.w	28[r10], r11
    187a:	3d 57 0d 00 	ld.w	12[r29], r10
    187e:	cb 51       	add	r11, r10
    1880:	7d 57 09 00 	st.w	r10, 8[r29]
    1884:	3d 57 09 00 	ld.w	8[r29], r10
    1888:	2a 57 09 00 	ld.w	8[r10], r10
    188c:	60 52       	cmp	0, r10
    188e:	d2 05       	be	1898 <_athrill_comm_is_arrived+0xa8>
    1890:	01 52       	mov	1, r10
    1892:	5d 57 17 00 	st.b	r10, 23[r29]
    1896:	c5 05       	br	189e <_athrill_comm_is_arrived+0xae>
    1898:	01 52       	mov	1, r10
    189a:	5d 57 17 00 	st.b	r10, 23[r29]
    189e:	bd 57 17 00 	ld.bu	23[r29], r10
    18a2:	1d 18       	mov	r29, sp
    18a4:	23 ef 19 00 	ld.w	24[sp], r29
    18a8:	03 1e 1c 00 	addi	28, sp, sp
    18ac:	7f 00       	jmp	[lp]

000018ae <_athrill_comm_init>:
    18ae:	58 1a       	add	-8, sp
    18b0:	63 ff 05 00 	st.w	lp, 4[sp]
    18b4:	63 ef 01 00 	st.w	r29, 0[sp]
    18b8:	03 e8       	mov	sp, r29
    18ba:	2a 06 d8 18 	mov	0x18d8, r10
    18be:	00 00 
    18c0:	80 ff 04 00 	jarl	18c4 <_athrill_comm_init+0x16>, lp
    18c4:	44 fa       	add	4, lp
    18c6:	6a 00       	jmp	[r10]
    18c8:	00 52       	mov	0, r10
    18ca:	1d 18       	mov	r29, sp
    18cc:	23 ff 05 00 	ld.w	4[sp], lp
    18d0:	23 ef 01 00 	ld.w	0[sp], r29
    18d4:	48 1a       	add	8, sp
    18d6:	7f 00       	jmp	[lp]

000018d8 <_acomm_generated_code_init>:
    18d8:	54 1a       	add	-12, sp
    18da:	63 ef 09 00 	st.w	r29, 8[sp]
    18de:	03 e8       	mov	sp, r29
    18e0:	2a 06 00 00 	mov	0x6ff0000, r10
    18e4:	ff 06 
    18e6:	7d 57 05 00 	st.w	r10, 4[r29]
    18ea:	3d 57 05 00 	ld.w	4[r29], r10
    18ee:	7d 57 01 00 	st.w	r10, 0[r29]
    18f2:	3d 57 05 00 	ld.w	4[r29], r10
    18f6:	2a 5f 0d 00 	ld.w	12[r10], r11
    18fa:	2a 06 90 70 	mov	0x5ff7090, r10
    18fe:	ff 05 
    1900:	6a 5f 01 00 	st.w	r11, 0[r10]
    1904:	2a 06 90 70 	mov	0x5ff7090, r10
    1908:	ff 05 
    190a:	3d 5f 05 00 	ld.w	4[r29], r11
    190e:	6a 5f 05 00 	st.w	r11, 4[r10]
    1912:	3d 57 05 00 	ld.w	4[r29], r10
    1916:	2a 57 11 00 	ld.w	16[r10], r10
    191a:	3d 5f 01 00 	ld.w	0[r29], r11
    191e:	ca 59       	add	r10, r11
    1920:	2a 06 90 70 	mov	0x5ff7090, r10
    1924:	ff 05 
    1926:	6a 5f 09 00 	st.w	r11, 8[r10]
    192a:	3d 57 05 00 	ld.w	4[r29], r10
    192e:	2a 57 19 00 	ld.w	24[r10], r10
    1932:	3d 5f 01 00 	ld.w	0[r29], r11
    1936:	ca 59       	add	r10, r11
    1938:	2a 06 90 70 	mov	0x5ff7090, r10
    193c:	ff 05 
    193e:	6a 5f 0d 00 	st.w	r11, 12[r10]
    1942:	3d 57 05 00 	ld.w	4[r29], r10
    1946:	2a 57 21 00 	ld.w	32[r10], r10
    194a:	3d 5f 01 00 	ld.w	0[r29], r11
    194e:	ca 59       	add	r10, r11
    1950:	2a 06 90 70 	mov	0x5ff7090, r10
    1954:	ff 05 
    1956:	6a 5f 11 00 	st.w	r11, 16[r10]
    195a:	3d 57 05 00 	ld.w	4[r29], r10
    195e:	2a 57 29 00 	ld.w	40[r10], r10
    1962:	3d 5f 01 00 	ld.w	0[r29], r11
    1966:	ca 59       	add	r10, r11
    1968:	2a 06 90 70 	mov	0x5ff7090, r10
    196c:	ff 05 
    196e:	6a 5f 15 00 	st.w	r11, 20[r10]
    1972:	3d 57 05 00 	ld.w	4[r29], r10
    1976:	2a 57 31 00 	ld.w	48[r10], r10
    197a:	3d 5f 01 00 	ld.w	0[r29], r11
    197e:	ca 59       	add	r10, r11
    1980:	2a 06 90 70 	mov	0x5ff7090, r10
    1984:	ff 05 
    1986:	6a 5f 19 00 	st.w	r11, 24[r10]
    198a:	3d 57 05 00 	ld.w	4[r29], r10
    198e:	2a 57 39 00 	ld.w	56[r10], r10
    1992:	3d 5f 01 00 	ld.w	0[r29], r11
    1996:	ca 59       	add	r10, r11
    1998:	2a 06 90 70 	mov	0x5ff7090, r10
    199c:	ff 05 
    199e:	6a 5f 1d 00 	st.w	r11, 28[r10]
    19a2:	2a 06 01 00 	mov	0x7ff0001, r10
    19a6:	ff 07 
    19a8:	7d 57 05 00 	st.w	r10, 4[r29]
    19ac:	3d 57 05 00 	ld.w	4[r29], r10
    19b0:	7d 57 01 00 	st.w	r10, 0[r29]
    19b4:	3d 57 05 00 	ld.w	4[r29], r10
    19b8:	2a 5f 0d 00 	ld.w	12[r10], r11
    19bc:	2a 06 90 70 	mov	0x5ff7090, r10
    19c0:	ff 05 
    19c2:	6a 5f 21 00 	st.w	r11, 32[r10]
    19c6:	2a 06 90 70 	mov	0x5ff7090, r10
    19ca:	ff 05 
    19cc:	3d 5f 05 00 	ld.w	4[r29], r11
    19d0:	6a 5f 25 00 	st.w	r11, 36[r10]
    19d4:	3d 57 05 00 	ld.w	4[r29], r10
    19d8:	2a 57 11 00 	ld.w	16[r10], r10
    19dc:	3d 5f 01 00 	ld.w	0[r29], r11
    19e0:	ca 59       	add	r10, r11
    19e2:	2a 06 90 70 	mov	0x5ff7090, r10
    19e6:	ff 05 
    19e8:	6a 5f 29 00 	st.w	r11, 40[r10]
    19ec:	3d 57 05 00 	ld.w	4[r29], r10
    19f0:	2a 57 19 00 	ld.w	24[r10], r10
    19f4:	3d 5f 01 00 	ld.w	0[r29], r11
    19f8:	ca 59       	add	r10, r11
    19fa:	2a 06 90 70 	mov	0x5ff7090, r10
    19fe:	ff 05 
    1a00:	6a 5f 2d 00 	st.w	r11, 44[r10]
    1a04:	3d 57 05 00 	ld.w	4[r29], r10
    1a08:	2a 57 21 00 	ld.w	32[r10], r10
    1a0c:	3d 5f 01 00 	ld.w	0[r29], r11
    1a10:	ca 59       	add	r10, r11
    1a12:	2a 06 90 70 	mov	0x5ff7090, r10
    1a16:	ff 05 
    1a18:	6a 5f 31 00 	st.w	r11, 48[r10]
    1a1c:	3d 57 05 00 	ld.w	4[r29], r10
    1a20:	2a 57 29 00 	ld.w	40[r10], r10
    1a24:	3d 5f 01 00 	ld.w	0[r29], r11
    1a28:	ca 59       	add	r10, r11
    1a2a:	2a 06 90 70 	mov	0x5ff7090, r10
    1a2e:	ff 05 
    1a30:	6a 5f 35 00 	st.w	r11, 52[r10]
    1a34:	3d 57 05 00 	ld.w	4[r29], r10
    1a38:	2a 57 31 00 	ld.w	48[r10], r10
    1a3c:	3d 5f 01 00 	ld.w	0[r29], r11
    1a40:	ca 59       	add	r10, r11
    1a42:	2a 06 90 70 	mov	0x5ff7090, r10
    1a46:	ff 05 
    1a48:	6a 5f 39 00 	st.w	r11, 56[r10]
    1a4c:	3d 57 05 00 	ld.w	4[r29], r10
    1a50:	2a 57 39 00 	ld.w	56[r10], r10
    1a54:	3d 5f 01 00 	ld.w	0[r29], r11
    1a58:	ca 59       	add	r10, r11
    1a5a:	2a 06 90 70 	mov	0x5ff7090, r10
    1a5e:	ff 05 
    1a60:	6a 5f 3d 00 	st.w	r11, 60[r10]
    1a64:	00 00       	nop	
    1a66:	1d 18       	mov	r29, sp
    1a68:	23 ef 09 00 	ld.w	8[sp], r29
    1a6c:	4c 1a       	add	12, sp
    1a6e:	7f 00       	jmp	[lp]

00001a70 <_acomm_lock_unlock_common>:
    1a70:	58 1a       	add	-8, sp
    1a72:	63 ef 05 00 	st.w	r29, 4[sp]
    1a76:	03 e8       	mov	sp, r29
    1a78:	7d 37 01 00 	st.w	r6, 0[r29]
    1a7c:	3d 57 01 00 	ld.w	0[r29], r10
    1a80:	60 52       	cmp	0, r10
    1a82:	c2 05       	be	1a8a <_acomm_lock_unlock_common+0x1a>
    1a84:	61 52       	cmp	1, r10
    1a86:	b2 0d       	be	1a9c <_acomm_lock_unlock_common+0x2c>
    1a88:	b5 15       	br	1aae <_acomm_lock_unlock_common+0x3e>
    1a8a:	2b 06 00 00 	mov	0x6ff0000, r11
    1a8e:	ff 06 
    1a90:	2a 06 00 00 	mov	0xdead0000, r10
    1a94:	ad de 
    1a96:	6a 5f 01 00 	st.w	r11, 0[r10]
    1a9a:	a5 0d       	br	1aae <_acomm_lock_unlock_common+0x3e>
    1a9c:	2b 06 00 00 	mov	0x7ff0000, r11
    1aa0:	ff 07 
    1aa2:	2a 06 00 00 	mov	0xdead0000, r10
    1aa6:	ad de 
    1aa8:	6a 5f 01 00 	st.w	r11, 0[r10]
    1aac:	00 00       	nop	
    1aae:	00 00       	nop	
    1ab0:	1d 18       	mov	r29, sp
    1ab2:	23 ef 05 00 	ld.w	4[sp], r29
    1ab6:	48 1a       	add	8, sp
    1ab8:	7f 00       	jmp	[lp]

00001aba <_acomm_lock>:
    1aba:	54 1a       	add	-12, sp
    1abc:	63 ff 09 00 	st.w	lp, 8[sp]
    1ac0:	63 ef 05 00 	st.w	r29, 4[sp]
    1ac4:	03 e8       	mov	sp, r29
    1ac6:	7d 37 01 00 	st.w	r6, 0[r29]
    1aca:	3d 37 01 00 	ld.w	0[r29], r6
    1ace:	2a 06 70 1a 	mov	0x1a70, r10
    1ad2:	00 00 
    1ad4:	80 ff 04 00 	jarl	1ad8 <_acomm_lock+0x1e>, lp
    1ad8:	44 fa       	add	4, lp
    1ada:	6a 00       	jmp	[r10]
    1adc:	00 00       	nop	
    1ade:	1d 18       	mov	r29, sp
    1ae0:	23 ff 09 00 	ld.w	8[sp], lp
    1ae4:	23 ef 05 00 	ld.w	4[sp], r29
    1ae8:	4c 1a       	add	12, sp
    1aea:	7f 00       	jmp	[lp]

00001aec <_acomm_unlock>:
    1aec:	54 1a       	add	-12, sp
    1aee:	63 ff 09 00 	st.w	lp, 8[sp]
    1af2:	63 ef 05 00 	st.w	r29, 4[sp]
    1af6:	03 e8       	mov	sp, r29
    1af8:	7d 37 01 00 	st.w	r6, 0[r29]
    1afc:	3d 37 01 00 	ld.w	0[r29], r6
    1b00:	2a 06 70 1a 	mov	0x1a70, r10
    1b04:	00 00 
    1b06:	80 ff 04 00 	jarl	1b0a <_acomm_unlock+0x1e>, lp
    1b0a:	44 fa       	add	4, lp
    1b0c:	6a 00       	jmp	[r10]
    1b0e:	00 00       	nop	
    1b10:	1d 18       	mov	r29, sp
    1b12:	23 ff 09 00 	ld.w	8[sp], lp
    1b16:	23 ef 05 00 	ld.w	4[sp], r29
    1b1a:	4c 1a       	add	12, sp
    1b1c:	7f 00       	jmp	[lp]

00001b1e <_memcpy>:
    1b1e:	06 50       	mov	r6, r10
    1b20:	c6 41       	add	r6, r8
    1b22:	06 58       	mov	r6, r11
    1b24:	e8 59       	cmp	r8, r11
    1b26:	82 0d       	be	1b36 <_memcpy+0x18>
    1b28:	41 3a       	add	1, r7
    1b2a:	07 67 ff ff 	ld.b	-1[r7], r12
    1b2e:	41 5a       	add	1, r11
    1b30:	4b 67 ff ff 	st.b	r12, -1[r11]
    1b34:	85 fd       	br	1b24 <_memcpy+0x6>
    1b36:	7f 00       	jmp	[lp]
