
test_main.elf:     file format elf32-v850-rh850


Disassembly of section .vector:

00000000 <__reset>:
   0:	80 07 d0 07 	jr	7d0 <_start>
	...
  10:	80 07 e0 07 	jr	7f0 <_default_int_handler>
	...
  20:	80 07 d0 07 	jr	7f0 <_default_int_handler>
	...
  40:	80 07 b0 07 	jr	7f0 <_default_int_handler>
	...
  50:	80 07 a0 07 	jr	7f0 <_default_int_handler>
	...
  60:	80 07 90 07 	jr	7f0 <_default_int_handler>
	...
  80:	80 07 70 07 	jr	7f0 <_default_int_handler>
	...
  90:	80 07 60 07 	jr	7f0 <_default_int_handler>
	...
  a0:	80 07 50 07 	jr	7f0 <_default_int_handler>
	...
  b0:	80 07 40 07 	jr	7f0 <_default_int_handler>
	...
  c0:	80 07 30 07 	jr	7f0 <_default_int_handler>
	...
  d0:	80 07 20 07 	jr	7f0 <_default_int_handler>
	...
  e0:	80 07 10 07 	jr	7f0 <_default_int_handler>
	...
  f0:	80 07 00 07 	jr	7f0 <_default_int_handler>
	...
 100:	80 07 f0 06 	jr	7f0 <_default_int_handler>
	...
 110:	80 07 e0 06 	jr	7f0 <_default_int_handler>
	...
 120:	80 07 d0 06 	jr	7f0 <_default_int_handler>
	...
 130:	80 07 c0 06 	jr	7f0 <_default_int_handler>
	...
 140:	80 07 b0 06 	jr	7f0 <_default_int_handler>
	...
 150:	80 07 a0 06 	jr	7f0 <_default_int_handler>
	...
 160:	80 07 90 06 	jr	7f0 <_default_int_handler>
	...
 170:	80 07 80 06 	jr	7f0 <_default_int_handler>
	...
 180:	80 07 70 06 	jr	7f0 <_default_int_handler>
	...
 190:	80 07 60 06 	jr	7f0 <_default_int_handler>
	...
 1a0:	80 07 50 06 	jr	7f0 <_default_int_handler>
	...
 1b0:	80 07 40 06 	jr	7f0 <_default_int_handler>
	...
 1c0:	80 07 30 06 	jr	7f0 <_default_int_handler>
	...
 1d0:	80 07 20 06 	jr	7f0 <_default_int_handler>
	...
 1e0:	80 07 10 06 	jr	7f0 <_default_int_handler>
	...
 1f0:	80 07 00 06 	jr	7f0 <_default_int_handler>
	...
 200:	80 07 f0 05 	jr	7f0 <_default_int_handler>
	...
 210:	80 07 e0 05 	jr	7f0 <_default_int_handler>
	...
 220:	80 07 d0 05 	jr	7f0 <_default_int_handler>
	...
 230:	80 07 c0 05 	jr	7f0 <_default_int_handler>
	...
 240:	80 07 b0 05 	jr	7f0 <_default_int_handler>
	...
 250:	80 07 a0 05 	jr	7f0 <_default_int_handler>
	...
 260:	80 07 90 05 	jr	7f0 <_default_int_handler>
	...
 270:	80 07 80 05 	jr	7f0 <_default_int_handler>
	...
 280:	80 07 70 05 	jr	7f0 <_default_int_handler>
	...
 290:	80 07 60 05 	jr	7f0 <_default_int_handler>
	...
 2a0:	80 07 50 05 	jr	7f0 <_default_int_handler>
	...
 2b0:	80 07 40 05 	jr	7f0 <_default_int_handler>
	...
 2c0:	80 07 30 05 	jr	7f0 <_default_int_handler>
	...
 2d0:	80 07 20 05 	jr	7f0 <_default_int_handler>
	...
 2e0:	80 07 10 05 	jr	7f0 <_default_int_handler>
	...
 2f0:	80 07 00 05 	jr	7f0 <_default_int_handler>
	...
 300:	80 07 f0 04 	jr	7f0 <_default_int_handler>
	...
 310:	80 07 e0 04 	jr	7f0 <_default_int_handler>
	...
 320:	80 07 d0 04 	jr	7f0 <_default_int_handler>
	...
 330:	80 07 c0 04 	jr	7f0 <_default_int_handler>
	...
 340:	80 07 b0 04 	jr	7f0 <_default_int_handler>
	...
 350:	80 07 a0 04 	jr	7f0 <_default_int_handler>
	...
 360:	80 07 90 04 	jr	7f0 <_default_int_handler>
	...
 370:	80 07 80 04 	jr	7f0 <_default_int_handler>
	...
 380:	80 07 70 04 	jr	7f0 <_default_int_handler>
	...
 390:	80 07 60 04 	jr	7f0 <_default_int_handler>
	...
 3a0:	80 07 50 04 	jr	7f0 <_default_int_handler>
	...
 3b0:	80 07 40 04 	jr	7f0 <_default_int_handler>
	...
 3c0:	80 07 30 04 	jr	7f0 <_default_int_handler>
	...
 3d0:	80 07 20 04 	jr	7f0 <_default_int_handler>
	...
 3e0:	80 07 10 04 	jr	7f0 <_default_int_handler>
	...
 3f0:	80 07 00 04 	jr	7f0 <_default_int_handler>
	...
 400:	80 07 f0 03 	jr	7f0 <_default_int_handler>
	...
 410:	80 07 e0 03 	jr	7f0 <_default_int_handler>
	...
 420:	80 07 d0 03 	jr	7f0 <_default_int_handler>
	...
 430:	80 07 c0 03 	jr	7f0 <_default_int_handler>
	...
 440:	80 07 b0 03 	jr	7f0 <_default_int_handler>
	...
 450:	80 07 a0 03 	jr	7f0 <_default_int_handler>
	...
 460:	80 07 90 03 	jr	7f0 <_default_int_handler>
	...
 470:	80 07 80 03 	jr	7f0 <_default_int_handler>
	...
 480:	80 07 70 03 	jr	7f0 <_default_int_handler>
	...
 490:	80 07 60 03 	jr	7f0 <_default_int_handler>
	...
 4a0:	80 07 50 03 	jr	7f0 <_default_int_handler>
	...
 4b0:	80 07 40 03 	jr	7f0 <_default_int_handler>
	...
 4c0:	80 07 30 03 	jr	7f0 <_default_int_handler>
	...
 4d0:	80 07 20 03 	jr	7f0 <_default_int_handler>
	...
 4e0:	80 07 10 03 	jr	7f0 <_default_int_handler>
	...
 4f0:	80 07 00 03 	jr	7f0 <_default_int_handler>
	...
 500:	80 07 f0 02 	jr	7f0 <_default_int_handler>
	...
 510:	80 07 e0 02 	jr	7f0 <_default_int_handler>
	...
 520:	80 07 d0 02 	jr	7f0 <_default_int_handler>
	...
 530:	80 07 c0 02 	jr	7f0 <_default_int_handler>
	...
 540:	80 07 b0 02 	jr	7f0 <_default_int_handler>
	...
 550:	80 07 a0 02 	jr	7f0 <_default_int_handler>
	...
 560:	80 07 90 02 	jr	7f0 <_default_int_handler>
	...
 570:	80 07 80 02 	jr	7f0 <_default_int_handler>
	...
 580:	80 07 70 02 	jr	7f0 <_default_int_handler>
	...
 590:	80 07 60 02 	jr	7f0 <_default_int_handler>
	...
 5a0:	80 07 50 02 	jr	7f0 <_default_int_handler>
	...
 5b0:	80 07 40 02 	jr	7f0 <_default_int_handler>
	...
 5c0:	80 07 30 02 	jr	7f0 <_default_int_handler>
	...
 5d0:	80 07 20 02 	jr	7f0 <_default_int_handler>
	...
 5e0:	80 07 10 02 	jr	7f0 <_default_int_handler>
	...
 5f0:	80 07 00 02 	jr	7f0 <_default_int_handler>
	...
 600:	80 07 f0 01 	jr	7f0 <_default_int_handler>
	...
 610:	80 07 e0 01 	jr	7f0 <_default_int_handler>
	...
 620:	80 07 d0 01 	jr	7f0 <_default_int_handler>
	...
 630:	80 07 c0 01 	jr	7f0 <_default_int_handler>
	...
 640:	80 07 b0 01 	jr	7f0 <_default_int_handler>
	...
 650:	80 07 a0 01 	jr	7f0 <_default_int_handler>
	...
 660:	80 07 90 01 	jr	7f0 <_default_int_handler>
	...
 670:	80 07 80 01 	jr	7f0 <_default_int_handler>
	...
 680:	80 07 70 01 	jr	7f0 <_default_int_handler>
	...
 690:	80 07 60 01 	jr	7f0 <_default_int_handler>
	...
 6a0:	80 07 50 01 	jr	7f0 <_default_int_handler>
	...
 6b0:	80 07 40 01 	jr	7f0 <_default_int_handler>
	...
 6c0:	80 07 30 01 	jr	7f0 <_default_int_handler>
	...
 6d0:	80 07 20 01 	jr	7f0 <_default_int_handler>
	...
 6e0:	80 07 10 01 	jr	7f0 <_default_int_handler>
	...
 6f0:	80 07 00 01 	jr	7f0 <_default_int_handler>
	...
 700:	80 07 f0 00 	jr	7f0 <_default_int_handler>
	...
 710:	80 07 e0 00 	jr	7f0 <_default_int_handler>
	...
 720:	80 07 d0 00 	jr	7f0 <_default_int_handler>
	...
 730:	80 07 c0 00 	jr	7f0 <_default_int_handler>
	...
 740:	80 07 b0 00 	jr	7f0 <_default_int_handler>
	...
 750:	80 07 a0 00 	jr	7f0 <_default_int_handler>
	...
 760:	80 07 90 00 	jr	7f0 <_default_int_handler>
	...
 770:	80 07 80 00 	jr	7f0 <_default_int_handler>
	...
 780:	80 07 70 00 	jr	7f0 <_default_int_handler>
	...
 790:	80 07 60 00 	jr	7f0 <_default_int_handler>
	...
 7a0:	80 07 50 00 	jr	7f0 <_default_int_handler>
	...
 7b0:	80 07 40 00 	jr	7f0 <_default_int_handler>
	...
 7c0:	80 07 30 00 	jr	7f0 <_default_int_handler>
	...

Disassembly of section .text:

000007d0 <_start>:
     7d0:	e0 07 60 01 	di	
     7d4:	40 1e ff 05 	movhi	1535, r0, sp
     7d8:	23 1e 00 70 	movea	28672, sp, sp
     7dc:	03 1e 00 04 	addi	1024, sp, sp
     7e0:	80 ff fa 00 	jarl	8da <_bss_clear>, lp
     7e4:	80 ff 3e 01 	jarl	922 <_data_init>, lp
     7e8:	e0 87 60 01 	ei	
     7ec:	b5 45       	br	872 <_main>
	...

000007f0 <_default_int_handler>:
     7f0:	85 05       	br	7f0 <_default_int_handler>
	...

00000800 <_training>:
     800:	09 9e 00 04 	addi	1024, r9, r19
     804:	f5 35       	br	872 <_main>
	...

00000810 <_test_print>:
     810:	54 1a       	add	-12, sp
     812:	63 ef 09 00 	st.w	r29, 8[sp]
     816:	03 e8       	mov	sp, r29
     818:	7d 37 01 00 	st.w	r6, 0[r29]
     81c:	7d 07 05 00 	st.w	r0, 4[r29]
     820:	c5 15       	br	848 <_test_print+0x38>
     822:	20 56 07 fa 	movea	-1529, r0, r10
     826:	3d 5f 05 00 	ld.w	4[r29], r11
     82a:	3d 67 01 00 	ld.w	0[r29], r12
     82e:	cc 59       	add	r12, r11
     830:	0b 5f 00 00 	ld.b	0[r11], r11
     834:	d8 5a       	shl	24, r11
     836:	b8 5a       	sar	24, r11
     838:	8b 00       	zxb	r11
     83a:	4a 5f 00 00 	st.b	r11, 0[r10]
     83e:	3d 57 05 00 	ld.w	4[r29], r10
     842:	41 52       	add	1, r10
     844:	7d 57 05 00 	st.w	r10, 4[r29]
     848:	3d 57 05 00 	ld.w	4[r29], r10
     84c:	3d 5f 01 00 	ld.w	0[r29], r11
     850:	cb 51       	add	r11, r10
     852:	0a 57 00 00 	ld.b	0[r10], r10
     856:	d8 52       	shl	24, r10
     858:	b8 52       	sar	24, r10
     85a:	60 52       	cmp	0, r10
     85c:	ba e5       	bne	822 <_test_print+0x12>
     85e:	20 56 07 fa 	movea	-1529, r0, r10
     862:	0a 5a       	mov	10, r11
     864:	4a 5f 00 00 	st.b	r11, 0[r10]
     868:	1d 18       	mov	r29, sp
     86a:	23 ef 09 00 	ld.w	8[sp], r29
     86e:	4c 1a       	add	12, sp
     870:	7f 00       	jmp	[lp]

00000872 <_main>:
     872:	58 1a       	add	-8, sp
     874:	63 ff 05 00 	st.w	lp, 4[sp]
     878:	63 ef 01 00 	st.w	r29, 0[sp]
     87c:	03 e8       	mov	sp, r29
     87e:	2a 06 36 10 	mov	0x1036, r10
     882:	00 00 
     884:	80 ff 04 00 	jarl	888 <_main+0x16>, lp
     888:	44 fa       	add	4, lp
     88a:	6a 00       	jmp	[r10]
     88c:	2a 06 e0 10 	mov	0x10e0, r10
     890:	00 00 
     892:	80 ff 04 00 	jarl	896 <_main+0x24>, lp
     896:	44 fa       	add	4, lp
     898:	6a 00       	jmp	[r10]
     89a:	2a 06 4c 11 	mov	0x114c, r10
     89e:	00 00 
     8a0:	80 ff 04 00 	jarl	8a4 <_main+0x32>, lp
     8a4:	44 fa       	add	4, lp
     8a6:	6a 00       	jmp	[r10]
     8a8:	2a 06 ba 11 	mov	0x11ba, r10
     8ac:	00 00 
     8ae:	80 ff 04 00 	jarl	8b2 <_main+0x40>, lp
     8b2:	44 fa       	add	4, lp
     8b4:	6a 00       	jmp	[r10]
     8b6:	2a 06 72 12 	mov	0x1272, r10
     8ba:	00 00 
     8bc:	80 ff 04 00 	jarl	8c0 <_main+0x4e>, lp
     8c0:	44 fa       	add	4, lp
     8c2:	6a 00       	jmp	[r10]
     8c4:	26 06 f0 14 	mov	0x14f0, r6
     8c8:	00 00 
     8ca:	2a 06 10 08 	mov	0x810, r10
     8ce:	00 00 
     8d0:	80 ff 04 00 	jarl	8d4 <_main+0x62>, lp
     8d4:	44 fa       	add	4, lp
     8d6:	6a 00       	jmp	[r10]
     8d8:	85 05       	br	8d8 <_main+0x66>

000008da <_bss_clear>:
     8da:	54 1a       	add	-12, sp
     8dc:	63 ef 09 00 	st.w	r29, 8[sp]
     8e0:	03 e8       	mov	sp, r29
     8e2:	2a 06 00 74 	mov	0x5ff7400, r10
     8e6:	ff 05 
     8e8:	7d 57 05 00 	st.w	r10, 4[r29]
     8ec:	2a 06 68 74 	mov	0x5ff7468, r10
     8f0:	ff 05 
     8f2:	7d 57 01 00 	st.w	r10, 0[r29]
     8f6:	a5 0d       	br	90a <_bss_clear+0x30>
     8f8:	3d 57 05 00 	ld.w	4[r29], r10
     8fc:	4a 07 00 00 	st.b	r0, 0[r10]
     900:	3d 57 05 00 	ld.w	4[r29], r10
     904:	41 52       	add	1, r10
     906:	7d 57 05 00 	st.w	r10, 4[r29]
     90a:	3d 5f 05 00 	ld.w	4[r29], r11
     90e:	3d 57 01 00 	ld.w	0[r29], r10
     912:	ea 59       	cmp	r10, r11
     914:	a1 f5       	bl	8f8 <_bss_clear+0x1e>
     916:	00 00       	nop	
     918:	1d 18       	mov	r29, sp
     91a:	23 ef 09 00 	ld.w	8[sp], r29
     91e:	4c 1a       	add	12, sp
     920:	7f 00       	jmp	[lp]

00000922 <_data_init>:
     922:	50 1a       	add	-16, sp
     924:	63 ef 0d 00 	st.w	r29, 12[sp]
     928:	03 e8       	mov	sp, r29
     92a:	2a 06 d8 16 	mov	0x16d8, r10
     92e:	00 00 
     930:	7d 57 09 00 	st.w	r10, 8[r29]
     934:	2a 06 d8 16 	mov	0x16d8, r10
     938:	00 00 
     93a:	7d 57 01 00 	st.w	r10, 0[r29]
     93e:	2a 06 00 70 	mov	0x5ff7000, r10
     942:	ff 05 
     944:	7d 57 05 00 	st.w	r10, 4[r29]
     948:	b5 15       	br	96e <_data_init+0x4c>
     94a:	3d 57 09 00 	ld.w	8[r29], r10
     94e:	8a 5f 01 00 	ld.bu	0[r10], r11
     952:	3d 57 05 00 	ld.w	4[r29], r10
     956:	4a 5f 00 00 	st.b	r11, 0[r10]
     95a:	3d 57 05 00 	ld.w	4[r29], r10
     95e:	41 52       	add	1, r10
     960:	7d 57 05 00 	st.w	r10, 4[r29]
     964:	3d 57 09 00 	ld.w	8[r29], r10
     968:	41 52       	add	1, r10
     96a:	7d 57 09 00 	st.w	r10, 8[r29]
     96e:	3d 5f 09 00 	ld.w	8[r29], r11
     972:	3d 57 01 00 	ld.w	0[r29], r10
     976:	ea 59       	cmp	r10, r11
     978:	91 ed       	bl	94a <_data_init+0x28>
     97a:	1d 18       	mov	r29, sp
     97c:	23 ef 0d 00 	ld.w	12[sp], r29
     980:	03 1e 10 00 	addi	16, sp, sp
     984:	7f 00       	jmp	[lp]

00000986 <_list_init>:
     986:	58 1a       	add	-8, sp
     988:	63 ff 05 00 	st.w	lp, 4[sp]
     98c:	63 ef 01 00 	st.w	r29, 0[sp]
     990:	03 e8       	mov	sp, r29
     992:	2a 06 4a 0b 	mov	0xb4a, r10
     996:	00 00 
     998:	80 ff 04 00 	jarl	99c <_list_init+0x16>, lp
     99c:	44 fa       	add	4, lp
     99e:	6a 00       	jmp	[r10]
     9a0:	1d 18       	mov	r29, sp
     9a2:	23 ff 05 00 	ld.w	4[sp], lp
     9a6:	23 ef 01 00 	ld.w	0[sp], r29
     9aa:	48 1a       	add	8, sp
     9ac:	7f 00       	jmp	[lp]

000009ae <_my_alloc>:
     9ae:	54 1a       	add	-12, sp
     9b0:	63 ff 09 00 	st.w	lp, 8[sp]
     9b4:	63 ef 05 00 	st.w	r29, 4[sp]
     9b8:	03 e8       	mov	sp, r29
     9ba:	2a 06 00 74 	mov	0x5ff7400, r10
     9be:	ff 05 
     9c0:	2a 57 01 00 	ld.w	0[r10], r10
     9c4:	60 52       	cmp	0, r10
     9c6:	ba 05       	bne	9cc <_my_alloc+0x1e>
     9c8:	00 52       	mov	0, r10
     9ca:	a5 25       	br	a0e <_my_alloc+0x60>
     9cc:	26 06 00 74 	mov	0x5ff7400, r6
     9d0:	ff 05 
     9d2:	2a 06 2c 0d 	mov	0xd2c, r10
     9d6:	00 00 
     9d8:	80 ff 04 00 	jarl	9dc <_my_alloc+0x2e>, lp
     9dc:	44 fa       	add	4, lp
     9de:	6a 00       	jmp	[r10]
     9e0:	7d 57 01 00 	st.w	r10, 0[r29]
     9e4:	26 06 04 74 	mov	0x5ff7404, r6
     9e8:	ff 05 
     9ea:	3d 3f 01 00 	ld.w	0[r29], r7
     9ee:	2a 06 2e 0e 	mov	0xe2e, r10
     9f2:	00 00 
     9f4:	80 ff 04 00 	jarl	9f8 <_my_alloc+0x4a>, lp
     9f8:	44 fa       	add	4, lp
     9fa:	6a 00       	jmp	[r10]
     9fc:	3d 57 01 00 	ld.w	0[r29], r10
     a00:	01 5a       	mov	1, r11
     a02:	6a 5f 0d 00 	st.w	r11, 12[r10]
     a06:	3d 57 01 00 	ld.w	0[r29], r10
     a0a:	2a 57 09 00 	ld.w	8[r10], r10
     a0e:	1d 18       	mov	r29, sp
     a10:	23 ff 09 00 	ld.w	8[sp], lp
     a14:	23 ef 05 00 	ld.w	4[sp], r29
     a18:	4c 1a       	add	12, sp
     a1a:	7f 00       	jmp	[lp]

00000a1c <_my_free>:
     a1c:	03 1e e8 ff 	addi	-24, sp, sp
     a20:	63 ff 15 00 	st.w	lp, 20[sp]
     a24:	63 ef 11 00 	st.w	r29, 16[sp]
     a28:	03 e8       	mov	sp, r29
     a2a:	7d 37 01 00 	st.w	r6, 0[r29]
     a2e:	3d 5f 01 00 	ld.w	0[r29], r11
     a32:	2a 06 08 74 	mov	0x5ff7408, r10
     a36:	ff 05 
     a38:	ea 59       	cmp	r10, r11
     a3a:	c9 0d       	bnl	a52 <_my_free+0x36>
     a3c:	3d 5f 01 00 	ld.w	0[r29], r11
     a40:	2a 06 08 74 	mov	0x5ff7408, r10
     a44:	ff 05 
     a46:	0a 56 30 00 	addi	48, r10, r10
     a4a:	ea 59       	cmp	r10, r11
     a4c:	b1 05       	bl	a52 <_my_free+0x36>
     a4e:	1f 52       	mov	-1, r10
     a50:	c5 45       	br	ad8 <_my_free+0xbc>
     a52:	3d 5f 01 00 	ld.w	0[r29], r11
     a56:	2a 06 08 74 	mov	0x5ff7408, r10
     a5a:	ff 05 
     a5c:	8b 51       	subr	r11, r10
     a5e:	7d 57 0d 00 	st.w	r10, 12[r29]
     a62:	3d 57 0d 00 	ld.w	12[r29], r10
     a66:	ca 56 0f 00 	andi	15, r10, r10
     a6a:	60 52       	cmp	0, r10
     a6c:	b2 05       	be	a72 <_my_free+0x56>
     a6e:	1f 52       	mov	-1, r10
     a70:	c5 35       	br	ad8 <_my_free+0xbc>
     a72:	3d 57 0d 00 	ld.w	12[r29], r10
     a76:	84 52       	shr	4, r10
     a78:	7d 57 09 00 	st.w	r10, 8[r29]
     a7c:	3d 57 09 00 	ld.w	8[r29], r10
     a80:	c4 52       	shl	4, r10
     a82:	2b 06 38 74 	mov	0x5ff7438, r11
     a86:	ff 05 
     a88:	cb 51       	add	r11, r10
     a8a:	7d 57 05 00 	st.w	r10, 4[r29]
     a8e:	3d 57 05 00 	ld.w	4[r29], r10
     a92:	2a 57 0d 00 	ld.w	12[r10], r10
     a96:	61 52       	cmp	1, r10
     a98:	b2 05       	be	a9e <_my_free+0x82>
     a9a:	1f 52       	mov	-1, r10
     a9c:	e5 1d       	br	ad8 <_my_free+0xbc>
     a9e:	26 06 04 74 	mov	0x5ff7404, r6
     aa2:	ff 05 
     aa4:	3d 3f 05 00 	ld.w	4[r29], r7
     aa8:	2a 06 7e 0c 	mov	0xc7e, r10
     aac:	00 00 
     aae:	80 ff 04 00 	jarl	ab2 <_my_free+0x96>, lp
     ab2:	44 fa       	add	4, lp
     ab4:	6a 00       	jmp	[r10]
     ab6:	26 06 00 74 	mov	0x5ff7400, r6
     aba:	ff 05 
     abc:	3d 3f 05 00 	ld.w	4[r29], r7
     ac0:	2a 06 00 0f 	mov	0xf00, r10
     ac4:	00 00 
     ac6:	80 ff 04 00 	jarl	aca <_my_free+0xae>, lp
     aca:	44 fa       	add	4, lp
     acc:	6a 00       	jmp	[r10]
     ace:	3d 57 05 00 	ld.w	4[r29], r10
     ad2:	6a 07 0d 00 	st.w	r0, 12[r10]
     ad6:	00 52       	mov	0, r10
     ad8:	1d 18       	mov	r29, sp
     ada:	23 ff 15 00 	ld.w	20[sp], lp
     ade:	23 ef 11 00 	ld.w	16[sp], r29
     ae2:	03 1e 18 00 	addi	24, sp, sp
     ae6:	7f 00       	jmp	[lp]

00000ae8 <_test_print>:
     ae8:	54 1a       	add	-12, sp
     aea:	63 ef 09 00 	st.w	r29, 8[sp]
     aee:	03 e8       	mov	sp, r29
     af0:	7d 37 01 00 	st.w	r6, 0[r29]
     af4:	7d 07 05 00 	st.w	r0, 4[r29]
     af8:	c5 15       	br	b20 <_test_print+0x38>
     afa:	20 56 07 fa 	movea	-1529, r0, r10
     afe:	3d 5f 05 00 	ld.w	4[r29], r11
     b02:	3d 67 01 00 	ld.w	0[r29], r12
     b06:	cc 59       	add	r12, r11
     b08:	0b 5f 00 00 	ld.b	0[r11], r11
     b0c:	d8 5a       	shl	24, r11
     b0e:	b8 5a       	sar	24, r11
     b10:	8b 00       	zxb	r11
     b12:	4a 5f 00 00 	st.b	r11, 0[r10]
     b16:	3d 57 05 00 	ld.w	4[r29], r10
     b1a:	41 52       	add	1, r10
     b1c:	7d 57 05 00 	st.w	r10, 4[r29]
     b20:	3d 57 05 00 	ld.w	4[r29], r10
     b24:	3d 5f 01 00 	ld.w	0[r29], r11
     b28:	cb 51       	add	r11, r10
     b2a:	0a 57 00 00 	ld.b	0[r10], r10
     b2e:	d8 52       	shl	24, r10
     b30:	b8 52       	sar	24, r10
     b32:	60 52       	cmp	0, r10
     b34:	ba e5       	bne	afa <_test_print+0x12>
     b36:	20 56 07 fa 	movea	-1529, r0, r10
     b3a:	0a 5a       	mov	10, r11
     b3c:	4a 5f 00 00 	st.b	r11, 0[r10]
     b40:	1d 18       	mov	r29, sp
     b42:	23 ef 09 00 	ld.w	8[sp], r29
     b46:	4c 1a       	add	12, sp
     b48:	7f 00       	jmp	[lp]

00000b4a <_list_private_init>:
     b4a:	54 1a       	add	-12, sp
     b4c:	63 ef 09 00 	st.w	r29, 8[sp]
     b50:	03 e8       	mov	sp, r29
     b52:	2a 06 38 74 	mov	0x5ff7438, r10
     b56:	ff 05 
     b58:	7d 57 01 00 	st.w	r10, 0[r29]
     b5c:	7d 07 05 00 	st.w	r0, 4[r29]
     b60:	95 7d       	br	c52 <_list_private_init+0x108>
     b62:	3d 57 05 00 	ld.w	4[r29], r10
     b66:	60 52       	cmp	0, r10
     b68:	da 1d       	bne	ba2 <_list_private_init+0x58>
     b6a:	3d 57 05 00 	ld.w	4[r29], r10
     b6e:	c4 52       	shl	4, r10
     b70:	3d 5f 01 00 	ld.w	0[r29], r11
     b74:	cb 51       	add	r11, r10
     b76:	3d 5f 05 00 	ld.w	4[r29], r11
     b7a:	41 5a       	add	1, r11
     b7c:	c4 5a       	shl	4, r11
     b7e:	3d 67 01 00 	ld.w	0[r29], r12
     b82:	cc 59       	add	r12, r11
     b84:	6a 5f 01 00 	st.w	r11, 0[r10]
     b88:	3d 57 05 00 	ld.w	4[r29], r10
     b8c:	c4 52       	shl	4, r10
     b8e:	3d 5f 01 00 	ld.w	0[r29], r11
     b92:	cb 51       	add	r11, r10
     b94:	3d 5f 01 00 	ld.w	0[r29], r11
     b98:	0b 5e 20 00 	addi	32, r11, r11
     b9c:	6a 5f 05 00 	st.w	r11, 4[r10]
     ba0:	d5 3d       	br	c1a <_list_private_init+0xd0>
     ba2:	3d 57 05 00 	ld.w	4[r29], r10
     ba6:	62 52       	cmp	2, r10
     ba8:	ba 1d       	bne	bde <_list_private_init+0x94>
     baa:	3d 57 05 00 	ld.w	4[r29], r10
     bae:	c4 52       	shl	4, r10
     bb0:	3d 5f 01 00 	ld.w	0[r29], r11
     bb4:	cb 51       	add	r11, r10
     bb6:	3d 5f 01 00 	ld.w	0[r29], r11
     bba:	6a 5f 01 00 	st.w	r11, 0[r10]
     bbe:	3d 57 05 00 	ld.w	4[r29], r10
     bc2:	c4 52       	shl	4, r10
     bc4:	3d 5f 01 00 	ld.w	0[r29], r11
     bc8:	cb 51       	add	r11, r10
     bca:	3d 5f 05 00 	ld.w	4[r29], r11
     bce:	c4 5a       	shl	4, r11
     bd0:	50 5a       	add	-16, r11
     bd2:	3d 67 01 00 	ld.w	0[r29], r12
     bd6:	cc 59       	add	r12, r11
     bd8:	6a 5f 05 00 	st.w	r11, 4[r10]
     bdc:	f5 1d       	br	c1a <_list_private_init+0xd0>
     bde:	3d 57 05 00 	ld.w	4[r29], r10
     be2:	c4 52       	shl	4, r10
     be4:	3d 5f 01 00 	ld.w	0[r29], r11
     be8:	cb 51       	add	r11, r10
     bea:	3d 5f 05 00 	ld.w	4[r29], r11
     bee:	41 5a       	add	1, r11
     bf0:	c4 5a       	shl	4, r11
     bf2:	3d 67 01 00 	ld.w	0[r29], r12
     bf6:	cc 59       	add	r12, r11
     bf8:	6a 5f 01 00 	st.w	r11, 0[r10]
     bfc:	3d 57 05 00 	ld.w	4[r29], r10
     c00:	c4 52       	shl	4, r10
     c02:	3d 5f 01 00 	ld.w	0[r29], r11
     c06:	cb 51       	add	r11, r10
     c08:	3d 5f 05 00 	ld.w	4[r29], r11
     c0c:	c4 5a       	shl	4, r11
     c0e:	50 5a       	add	-16, r11
     c10:	3d 67 01 00 	ld.w	0[r29], r12
     c14:	cc 59       	add	r12, r11
     c16:	6a 5f 05 00 	st.w	r11, 4[r10]
     c1a:	3d 57 05 00 	ld.w	4[r29], r10
     c1e:	c4 52       	shl	4, r10
     c20:	3d 5f 01 00 	ld.w	0[r29], r11
     c24:	cb 51       	add	r11, r10
     c26:	6a 07 0d 00 	st.w	r0, 12[r10]
     c2a:	3d 57 05 00 	ld.w	4[r29], r10
     c2e:	c4 52       	shl	4, r10
     c30:	3d 5f 01 00 	ld.w	0[r29], r11
     c34:	cb 51       	add	r11, r10
     c36:	3d 5f 05 00 	ld.w	4[r29], r11
     c3a:	c4 5a       	shl	4, r11
     c3c:	2c 06 08 74 	mov	0x5ff7408, r12
     c40:	ff 05 
     c42:	cc 59       	add	r12, r11
     c44:	6a 5f 09 00 	st.w	r11, 8[r10]
     c48:	3d 57 05 00 	ld.w	4[r29], r10
     c4c:	41 52       	add	1, r10
     c4e:	7d 57 05 00 	st.w	r10, 4[r29]
     c52:	3d 57 05 00 	ld.w	4[r29], r10
     c56:	62 52       	cmp	2, r10
     c58:	d7 85       	ble	b62 <_list_private_init+0x18>
     c5a:	2a 06 00 74 	mov	0x5ff7400, r10
     c5e:	ff 05 
     c60:	3d 5f 01 00 	ld.w	0[r29], r11
     c64:	6a 5f 01 00 	st.w	r11, 0[r10]
     c68:	2a 06 04 74 	mov	0x5ff7404, r10
     c6c:	ff 05 
     c6e:	6a 07 01 00 	st.w	r0, 0[r10]
     c72:	00 00       	nop	
     c74:	1d 18       	mov	r29, sp
     c76:	23 ef 09 00 	ld.w	8[sp], r29
     c7a:	4c 1a       	add	12, sp
     c7c:	7f 00       	jmp	[lp]

00000c7e <_list_private_remove>:
     c7e:	03 1e e8 ff 	addi	-24, sp, sp
     c82:	63 ef 15 00 	st.w	r29, 20[sp]
     c86:	03 e8       	mov	sp, r29
     c88:	7d 37 05 00 	st.w	r6, 4[r29]
     c8c:	7d 3f 01 00 	st.w	r7, 0[r29]
     c90:	3d 57 05 00 	ld.w	4[r29], r10
     c94:	2a 57 01 00 	ld.w	0[r10], r10
     c98:	60 52       	cmp	0, r10
     c9a:	a2 45       	be	d1e <_list_private_remove+0xa0>
     c9c:	3d 57 01 00 	ld.w	0[r29], r10
     ca0:	7d 57 11 00 	st.w	r10, 16[r29]
     ca4:	3d 57 11 00 	ld.w	16[r29], r10
     ca8:	2a 57 01 00 	ld.w	0[r10], r10
     cac:	7d 57 0d 00 	st.w	r10, 12[r29]
     cb0:	3d 57 11 00 	ld.w	16[r29], r10
     cb4:	2a 57 05 00 	ld.w	4[r10], r10
     cb8:	7d 57 09 00 	st.w	r10, 8[r29]
     cbc:	3d 57 09 00 	ld.w	8[r29], r10
     cc0:	3d 5f 0d 00 	ld.w	12[r29], r11
     cc4:	6a 5f 01 00 	st.w	r11, 0[r10]
     cc8:	3d 57 0d 00 	ld.w	12[r29], r10
     ccc:	3d 5f 09 00 	ld.w	8[r29], r11
     cd0:	6a 5f 05 00 	st.w	r11, 4[r10]
     cd4:	3d 57 05 00 	ld.w	4[r29], r10
     cd8:	2a 5f 01 00 	ld.w	0[r10], r11
     cdc:	3d 57 11 00 	ld.w	16[r29], r10
     ce0:	ea 59       	cmp	r10, r11
     ce2:	aa 15       	bne	d06 <_list_private_remove+0x88>
     ce4:	3d 5f 11 00 	ld.w	16[r29], r11
     ce8:	3d 57 0d 00 	ld.w	12[r29], r10
     cec:	ea 59       	cmp	r10, r11
     cee:	82 0d       	be	cfe <_list_private_remove+0x80>
     cf0:	3d 57 05 00 	ld.w	4[r29], r10
     cf4:	3d 5f 0d 00 	ld.w	12[r29], r11
     cf8:	6a 5f 01 00 	st.w	r11, 0[r10]
     cfc:	d5 05       	br	d06 <_list_private_remove+0x88>
     cfe:	3d 57 05 00 	ld.w	4[r29], r10
     d02:	6a 07 01 00 	st.w	r0, 0[r10]
     d06:	3d 57 11 00 	ld.w	16[r29], r10
     d0a:	3d 5f 11 00 	ld.w	16[r29], r11
     d0e:	6a 5f 01 00 	st.w	r11, 0[r10]
     d12:	3d 57 11 00 	ld.w	16[r29], r10
     d16:	3d 5f 11 00 	ld.w	16[r29], r11
     d1a:	6a 5f 05 00 	st.w	r11, 4[r10]
     d1e:	00 00       	nop	
     d20:	1d 18       	mov	r29, sp
     d22:	23 ef 15 00 	ld.w	20[sp], r29
     d26:	03 1e 18 00 	addi	24, sp, sp
     d2a:	7f 00       	jmp	[lp]

00000d2c <_list_private_remove_head>:
     d2c:	50 1a       	add	-16, sp
     d2e:	63 ff 0d 00 	st.w	lp, 12[sp]
     d32:	63 ef 09 00 	st.w	r29, 8[sp]
     d36:	03 e8       	mov	sp, r29
     d38:	7d 37 01 00 	st.w	r6, 0[r29]
     d3c:	3d 57 01 00 	ld.w	0[r29], r10
     d40:	2a 57 01 00 	ld.w	0[r10], r10
     d44:	7d 57 05 00 	st.w	r10, 4[r29]
     d48:	3d 57 05 00 	ld.w	4[r29], r10
     d4c:	60 52       	cmp	0, r10
     d4e:	c2 0d       	be	d66 <_list_private_remove_head+0x3a>
     d50:	3d 37 01 00 	ld.w	0[r29], r6
     d54:	3d 3f 05 00 	ld.w	4[r29], r7
     d58:	2a 06 7e 0c 	mov	0xc7e, r10
     d5c:	00 00 
     d5e:	80 ff 04 00 	jarl	d62 <_list_private_remove_head+0x36>, lp
     d62:	44 fa       	add	4, lp
     d64:	6a 00       	jmp	[r10]
     d66:	3d 57 05 00 	ld.w	4[r29], r10
     d6a:	1d 18       	mov	r29, sp
     d6c:	23 ff 0d 00 	ld.w	12[sp], lp
     d70:	23 ef 09 00 	ld.w	8[sp], r29
     d74:	03 1e 10 00 	addi	16, sp, sp
     d78:	7f 00       	jmp	[lp]

00000d7a <_list_private_add_next>:
     d7a:	50 1a       	add	-16, sp
     d7c:	63 ef 0d 00 	st.w	r29, 12[sp]
     d80:	03 e8       	mov	sp, r29
     d82:	7d 37 09 00 	st.w	r6, 8[r29]
     d86:	7d 3f 05 00 	st.w	r7, 4[r29]
     d8a:	7d 47 01 00 	st.w	r8, 0[r29]
     d8e:	3d 57 05 00 	ld.w	4[r29], r10
     d92:	2a 5f 01 00 	ld.w	0[r10], r11
     d96:	3d 57 01 00 	ld.w	0[r29], r10
     d9a:	6a 5f 01 00 	st.w	r11, 0[r10]
     d9e:	3d 57 01 00 	ld.w	0[r29], r10
     da2:	3d 5f 05 00 	ld.w	4[r29], r11
     da6:	6a 5f 05 00 	st.w	r11, 4[r10]
     daa:	3d 57 05 00 	ld.w	4[r29], r10
     dae:	2a 57 01 00 	ld.w	0[r10], r10
     db2:	3d 5f 01 00 	ld.w	0[r29], r11
     db6:	6a 5f 05 00 	st.w	r11, 4[r10]
     dba:	3d 57 05 00 	ld.w	4[r29], r10
     dbe:	3d 5f 01 00 	ld.w	0[r29], r11
     dc2:	6a 5f 01 00 	st.w	r11, 0[r10]
     dc6:	00 00       	nop	
     dc8:	1d 18       	mov	r29, sp
     dca:	23 ef 0d 00 	ld.w	12[sp], r29
     dce:	03 1e 10 00 	addi	16, sp, sp
     dd2:	7f 00       	jmp	[lp]

00000dd4 <_list_private_add_prev>:
     dd4:	50 1a       	add	-16, sp
     dd6:	63 ef 0d 00 	st.w	r29, 12[sp]
     dda:	03 e8       	mov	sp, r29
     ddc:	7d 37 09 00 	st.w	r6, 8[r29]
     de0:	7d 3f 05 00 	st.w	r7, 4[r29]
     de4:	7d 47 01 00 	st.w	r8, 0[r29]
     de8:	3d 57 01 00 	ld.w	0[r29], r10
     dec:	3d 5f 05 00 	ld.w	4[r29], r11
     df0:	6a 5f 01 00 	st.w	r11, 0[r10]
     df4:	3d 57 05 00 	ld.w	4[r29], r10
     df8:	2a 5f 05 00 	ld.w	4[r10], r11
     dfc:	3d 57 01 00 	ld.w	0[r29], r10
     e00:	6a 5f 05 00 	st.w	r11, 4[r10]
     e04:	3d 57 05 00 	ld.w	4[r29], r10
     e08:	2a 57 05 00 	ld.w	4[r10], r10
     e0c:	3d 5f 01 00 	ld.w	0[r29], r11
     e10:	6a 5f 01 00 	st.w	r11, 0[r10]
     e14:	3d 57 05 00 	ld.w	4[r29], r10
     e18:	3d 5f 01 00 	ld.w	0[r29], r11
     e1c:	6a 5f 05 00 	st.w	r11, 4[r10]
     e20:	00 00       	nop	
     e22:	1d 18       	mov	r29, sp
     e24:	23 ef 0d 00 	ld.w	12[sp], r29
     e28:	03 1e 10 00 	addi	16, sp, sp
     e2c:	7f 00       	jmp	[lp]

00000e2e <_list_private_add_head>:
     e2e:	50 1a       	add	-16, sp
     e30:	63 ff 0d 00 	st.w	lp, 12[sp]
     e34:	63 ef 09 00 	st.w	r29, 8[sp]
     e38:	03 e8       	mov	sp, r29
     e3a:	7d 37 05 00 	st.w	r6, 4[r29]
     e3e:	7d 3f 01 00 	st.w	r7, 0[r29]
     e42:	3d 57 01 00 	ld.w	0[r29], r10
     e46:	2a 5f 01 00 	ld.w	0[r10], r11
     e4a:	3d 57 01 00 	ld.w	0[r29], r10
     e4e:	ea 59       	cmp	r10, r11
     e50:	ca 0d       	bne	e68 <_list_private_add_head+0x3a>
     e52:	26 06 ff 14 	mov	0x14ff, r6
     e56:	00 00 
     e58:	2a 06 e8 0a 	mov	0xae8, r10
     e5c:	00 00 
     e5e:	80 ff 04 00 	jarl	e62 <_list_private_add_head+0x34>, lp
     e62:	44 fa       	add	4, lp
     e64:	6a 00       	jmp	[r10]
     e66:	b5 0d       	br	e7c <_list_private_add_head+0x4e>
     e68:	26 06 1f 15 	mov	0x151f, r6
     e6c:	00 00 
     e6e:	2a 06 e8 0a 	mov	0xae8, r10
     e72:	00 00 
     e74:	80 ff 04 00 	jarl	e78 <_list_private_add_head+0x4a>, lp
     e78:	44 fa       	add	4, lp
     e7a:	6a 00       	jmp	[r10]
     e7c:	3d 57 01 00 	ld.w	0[r29], r10
     e80:	2a 5f 05 00 	ld.w	4[r10], r11
     e84:	3d 57 01 00 	ld.w	0[r29], r10
     e88:	ea 59       	cmp	r10, r11
     e8a:	ca 0d       	bne	ea2 <_list_private_add_head+0x74>
     e8c:	26 06 3f 15 	mov	0x153f, r6
     e90:	00 00 
     e92:	2a 06 e8 0a 	mov	0xae8, r10
     e96:	00 00 
     e98:	80 ff 04 00 	jarl	e9c <_list_private_add_head+0x6e>, lp
     e9c:	44 fa       	add	4, lp
     e9e:	6a 00       	jmp	[r10]
     ea0:	b5 0d       	br	eb6 <_list_private_add_head+0x88>
     ea2:	26 06 5f 15 	mov	0x155f, r6
     ea6:	00 00 
     ea8:	2a 06 e8 0a 	mov	0xae8, r10
     eac:	00 00 
     eae:	80 ff 04 00 	jarl	eb2 <_list_private_add_head+0x84>, lp
     eb2:	44 fa       	add	4, lp
     eb4:	6a 00       	jmp	[r10]
     eb6:	3d 57 05 00 	ld.w	4[r29], r10
     eba:	2a 57 01 00 	ld.w	0[r10], r10
     ebe:	60 52       	cmp	0, r10
     ec0:	92 15       	be	ee2 <_list_private_add_head+0xb4>
     ec2:	3d 57 05 00 	ld.w	4[r29], r10
     ec6:	2a 57 01 00 	ld.w	0[r10], r10
     eca:	3d 37 05 00 	ld.w	4[r29], r6
     ece:	0a 38       	mov	r10, r7
     ed0:	3d 47 01 00 	ld.w	0[r29], r8
     ed4:	2a 06 d4 0d 	mov	0xdd4, r10
     ed8:	00 00 
     eda:	80 ff 04 00 	jarl	ede <_list_private_add_head+0xb0>, lp
     ede:	44 fa       	add	4, lp
     ee0:	6a 00       	jmp	[r10]
     ee2:	3d 57 05 00 	ld.w	4[r29], r10
     ee6:	3d 5f 01 00 	ld.w	0[r29], r11
     eea:	6a 5f 01 00 	st.w	r11, 0[r10]
     eee:	00 00       	nop	
     ef0:	1d 18       	mov	r29, sp
     ef2:	23 ff 0d 00 	ld.w	12[sp], lp
     ef6:	23 ef 09 00 	ld.w	8[sp], r29
     efa:	03 1e 10 00 	addi	16, sp, sp
     efe:	7f 00       	jmp	[lp]

00000f00 <_list_private_add_tail>:
     f00:	50 1a       	add	-16, sp
     f02:	63 ff 0d 00 	st.w	lp, 12[sp]
     f06:	63 ef 09 00 	st.w	r29, 8[sp]
     f0a:	03 e8       	mov	sp, r29
     f0c:	7d 37 05 00 	st.w	r6, 4[r29]
     f10:	7d 3f 01 00 	st.w	r7, 0[r29]
     f14:	3d 57 01 00 	ld.w	0[r29], r10
     f18:	2a 5f 01 00 	ld.w	0[r10], r11
     f1c:	3d 57 01 00 	ld.w	0[r29], r10
     f20:	ea 59       	cmp	r10, r11
     f22:	ca 0d       	bne	f3a <_list_private_add_tail+0x3a>
     f24:	26 06 ff 14 	mov	0x14ff, r6
     f28:	00 00 
     f2a:	2a 06 e8 0a 	mov	0xae8, r10
     f2e:	00 00 
     f30:	80 ff 04 00 	jarl	f34 <_list_private_add_tail+0x34>, lp
     f34:	44 fa       	add	4, lp
     f36:	6a 00       	jmp	[r10]
     f38:	b5 0d       	br	f4e <_list_private_add_tail+0x4e>
     f3a:	26 06 1f 15 	mov	0x151f, r6
     f3e:	00 00 
     f40:	2a 06 e8 0a 	mov	0xae8, r10
     f44:	00 00 
     f46:	80 ff 04 00 	jarl	f4a <_list_private_add_tail+0x4a>, lp
     f4a:	44 fa       	add	4, lp
     f4c:	6a 00       	jmp	[r10]
     f4e:	3d 57 01 00 	ld.w	0[r29], r10
     f52:	2a 5f 05 00 	ld.w	4[r10], r11
     f56:	3d 57 01 00 	ld.w	0[r29], r10
     f5a:	ea 59       	cmp	r10, r11
     f5c:	ca 0d       	bne	f74 <_list_private_add_tail+0x74>
     f5e:	26 06 3f 15 	mov	0x153f, r6
     f62:	00 00 
     f64:	2a 06 e8 0a 	mov	0xae8, r10
     f68:	00 00 
     f6a:	80 ff 04 00 	jarl	f6e <_list_private_add_tail+0x6e>, lp
     f6e:	44 fa       	add	4, lp
     f70:	6a 00       	jmp	[r10]
     f72:	b5 0d       	br	f88 <_list_private_add_tail+0x88>
     f74:	26 06 5f 15 	mov	0x155f, r6
     f78:	00 00 
     f7a:	2a 06 e8 0a 	mov	0xae8, r10
     f7e:	00 00 
     f80:	80 ff 04 00 	jarl	f84 <_list_private_add_tail+0x84>, lp
     f84:	44 fa       	add	4, lp
     f86:	6a 00       	jmp	[r10]
     f88:	3d 57 05 00 	ld.w	4[r29], r10
     f8c:	2a 57 01 00 	ld.w	0[r10], r10
     f90:	60 52       	cmp	0, r10
     f92:	a2 15       	be	fb6 <_list_private_add_tail+0xb6>
     f94:	3d 57 05 00 	ld.w	4[r29], r10
     f98:	2a 57 01 00 	ld.w	0[r10], r10
     f9c:	3d 37 05 00 	ld.w	4[r29], r6
     fa0:	0a 38       	mov	r10, r7
     fa2:	3d 47 01 00 	ld.w	0[r29], r8
     fa6:	2a 06 d4 0d 	mov	0xdd4, r10
     faa:	00 00 
     fac:	80 ff 04 00 	jarl	fb0 <_list_private_add_tail+0xb0>, lp
     fb0:	44 fa       	add	4, lp
     fb2:	6a 00       	jmp	[r10]
     fb4:	f5 05       	br	fc2 <_list_private_add_tail+0xc2>
     fb6:	3d 57 05 00 	ld.w	4[r29], r10
     fba:	3d 5f 01 00 	ld.w	0[r29], r11
     fbe:	6a 5f 01 00 	st.w	r11, 0[r10]
     fc2:	00 00       	nop	
     fc4:	1d 18       	mov	r29, sp
     fc6:	23 ff 0d 00 	ld.w	12[sp], lp
     fca:	23 ef 09 00 	ld.w	8[sp], r29
     fce:	03 1e 10 00 	addi	16, sp, sp
     fd2:	7f 00       	jmp	[lp]

00000fd4 <_test_print>:
     fd4:	54 1a       	add	-12, sp
     fd6:	63 ef 09 00 	st.w	r29, 8[sp]
     fda:	03 e8       	mov	sp, r29
     fdc:	7d 37 01 00 	st.w	r6, 0[r29]
     fe0:	7d 07 05 00 	st.w	r0, 4[r29]
     fe4:	c5 15       	br	100c <_test_print+0x38>
     fe6:	20 56 07 fa 	movea	-1529, r0, r10
     fea:	3d 5f 05 00 	ld.w	4[r29], r11
     fee:	3d 67 01 00 	ld.w	0[r29], r12
     ff2:	cc 59       	add	r12, r11
     ff4:	0b 5f 00 00 	ld.b	0[r11], r11
     ff8:	d8 5a       	shl	24, r11
     ffa:	b8 5a       	sar	24, r11
     ffc:	8b 00       	zxb	r11
     ffe:	4a 5f 00 00 	st.b	r11, 0[r10]
    1002:	3d 57 05 00 	ld.w	4[r29], r10
    1006:	41 52       	add	1, r10
    1008:	7d 57 05 00 	st.w	r10, 4[r29]
    100c:	3d 57 05 00 	ld.w	4[r29], r10
    1010:	3d 5f 01 00 	ld.w	0[r29], r11
    1014:	cb 51       	add	r11, r10
    1016:	0a 57 00 00 	ld.b	0[r10], r10
    101a:	d8 52       	shl	24, r10
    101c:	b8 52       	sar	24, r10
    101e:	60 52       	cmp	0, r10
    1020:	ba e5       	bne	fe6 <_test_print+0x12>
    1022:	20 56 07 fa 	movea	-1529, r0, r10
    1026:	0a 5a       	mov	10, r11
    1028:	4a 5f 00 00 	st.b	r11, 0[r10]
    102c:	1d 18       	mov	r29, sp
    102e:	23 ef 09 00 	ld.w	8[sp], r29
    1032:	4c 1a       	add	12, sp
    1034:	7f 00       	jmp	[lp]

00001036 <_list_test_ERR_1>:
    1036:	50 1a       	add	-16, sp
    1038:	63 ff 0d 00 	st.w	lp, 12[sp]
    103c:	63 ef 09 00 	st.w	r29, 8[sp]
    1040:	03 e8       	mov	sp, r29
    1042:	2a 06 ae 09 	mov	0x9ae, r10
    1046:	00 00 
    1048:	80 ff 04 00 	jarl	104c <_list_test_ERR_1+0x16>, lp
    104c:	44 fa       	add	4, lp
    104e:	6a 00       	jmp	[r10]
    1050:	7d 57 05 00 	st.w	r10, 4[r29]
    1054:	3d 37 05 00 	ld.w	4[r29], r6
    1058:	2a 06 1c 0a 	mov	0xa1c, r10
    105c:	00 00 
    105e:	80 ff 04 00 	jarl	1062 <_list_test_ERR_1+0x2c>, lp
    1062:	44 fa       	add	4, lp
    1064:	6a 00       	jmp	[r10]
    1066:	7d 57 01 00 	st.w	r10, 0[r29]
    106a:	3d 57 05 00 	ld.w	4[r29], r10
    106e:	60 52       	cmp	0, r10
    1070:	ca 0d       	bne	1088 <_list_test_ERR_1+0x52>
    1072:	26 06 7f 15 	mov	0x157f, r6
    1076:	00 00 
    1078:	2a 06 d4 0f 	mov	0xfd4, r10
    107c:	00 00 
    107e:	80 ff 04 00 	jarl	1082 <_list_test_ERR_1+0x4c>, lp
    1082:	44 fa       	add	4, lp
    1084:	6a 00       	jmp	[r10]
    1086:	b5 0d       	br	109c <_list_test_ERR_1+0x66>
    1088:	26 06 99 15 	mov	0x1599, r6
    108c:	00 00 
    108e:	2a 06 d4 0f 	mov	0xfd4, r10
    1092:	00 00 
    1094:	80 ff 04 00 	jarl	1098 <_list_test_ERR_1+0x62>, lp
    1098:	44 fa       	add	4, lp
    109a:	6a 00       	jmp	[r10]
    109c:	3d 57 01 00 	ld.w	0[r29], r10
    10a0:	7f 52       	cmp	-1, r10
    10a2:	ca 0d       	bne	10ba <_list_test_ERR_1+0x84>
    10a4:	26 06 b3 15 	mov	0x15b3, r6
    10a8:	00 00 
    10aa:	2a 06 d4 0f 	mov	0xfd4, r10
    10ae:	00 00 
    10b0:	80 ff 04 00 	jarl	10b4 <_list_test_ERR_1+0x7e>, lp
    10b4:	44 fa       	add	4, lp
    10b6:	6a 00       	jmp	[r10]
    10b8:	b5 0d       	br	10ce <_list_test_ERR_1+0x98>
    10ba:	26 06 c6 15 	mov	0x15c6, r6
    10be:	00 00 
    10c0:	2a 06 d4 0f 	mov	0xfd4, r10
    10c4:	00 00 
    10c6:	80 ff 04 00 	jarl	10ca <_list_test_ERR_1+0x94>, lp
    10ca:	44 fa       	add	4, lp
    10cc:	6a 00       	jmp	[r10]
    10ce:	00 00       	nop	
    10d0:	1d 18       	mov	r29, sp
    10d2:	23 ff 0d 00 	ld.w	12[sp], lp
    10d6:	23 ef 09 00 	ld.w	8[sp], r29
    10da:	03 1e 10 00 	addi	16, sp, sp
    10de:	7f 00       	jmp	[lp]

000010e0 <_list_test_ERR_2>:
    10e0:	50 1a       	add	-16, sp
    10e2:	63 ff 0d 00 	st.w	lp, 12[sp]
    10e6:	63 ef 09 00 	st.w	r29, 8[sp]
    10ea:	03 e8       	mov	sp, r29
    10ec:	1d 50       	mov	r29, r10
    10ee:	7d 57 05 00 	st.w	r10, 4[r29]
    10f2:	3d 37 05 00 	ld.w	4[r29], r6
    10f6:	2a 06 1c 0a 	mov	0xa1c, r10
    10fa:	00 00 
    10fc:	80 ff 04 00 	jarl	1100 <_list_test_ERR_2+0x20>, lp
    1100:	44 fa       	add	4, lp
    1102:	6a 00       	jmp	[r10]
    1104:	7d 57 01 00 	st.w	r10, 0[r29]
    1108:	3d 57 01 00 	ld.w	0[r29], r10
    110c:	7f 52       	cmp	-1, r10
    110e:	ca 0d       	bne	1126 <_list_test_ERR_2+0x46>
    1110:	26 06 b3 15 	mov	0x15b3, r6
    1114:	00 00 
    1116:	2a 06 d4 0f 	mov	0xfd4, r10
    111a:	00 00 
    111c:	80 ff 04 00 	jarl	1120 <_list_test_ERR_2+0x40>, lp
    1120:	44 fa       	add	4, lp
    1122:	6a 00       	jmp	[r10]
    1124:	b5 0d       	br	113a <_list_test_ERR_2+0x5a>
    1126:	26 06 c6 15 	mov	0x15c6, r6
    112a:	00 00 
    112c:	2a 06 d4 0f 	mov	0xfd4, r10
    1130:	00 00 
    1132:	80 ff 04 00 	jarl	1136 <_list_test_ERR_2+0x56>, lp
    1136:	44 fa       	add	4, lp
    1138:	6a 00       	jmp	[r10]
    113a:	00 00       	nop	
    113c:	1d 18       	mov	r29, sp
    113e:	23 ff 0d 00 	ld.w	12[sp], lp
    1142:	23 ef 09 00 	ld.w	8[sp], r29
    1146:	03 1e 10 00 	addi	16, sp, sp
    114a:	7f 00       	jmp	[lp]

0000114c <_list_test_OK_1>:
    114c:	54 1a       	add	-12, sp
    114e:	63 ff 09 00 	st.w	lp, 8[sp]
    1152:	63 ef 05 00 	st.w	r29, 4[sp]
    1156:	03 e8       	mov	sp, r29
    1158:	2a 06 86 09 	mov	0x986, r10
    115c:	00 00 
    115e:	80 ff 04 00 	jarl	1162 <_list_test_OK_1+0x16>, lp
    1162:	44 fa       	add	4, lp
    1164:	6a 00       	jmp	[r10]
    1166:	2a 06 ae 09 	mov	0x9ae, r10
    116a:	00 00 
    116c:	80 ff 04 00 	jarl	1170 <_list_test_OK_1+0x24>, lp
    1170:	44 fa       	add	4, lp
    1172:	6a 00       	jmp	[r10]
    1174:	7d 57 01 00 	st.w	r10, 0[r29]
    1178:	3d 57 01 00 	ld.w	0[r29], r10
    117c:	60 52       	cmp	0, r10
    117e:	c2 0d       	be	1196 <_list_test_OK_1+0x4a>
    1180:	26 06 d9 15 	mov	0x15d9, r6
    1184:	00 00 
    1186:	2a 06 d4 0f 	mov	0xfd4, r10
    118a:	00 00 
    118c:	80 ff 04 00 	jarl	1190 <_list_test_OK_1+0x44>, lp
    1190:	44 fa       	add	4, lp
    1192:	6a 00       	jmp	[r10]
    1194:	b5 0d       	br	11aa <_list_test_OK_1+0x5e>
    1196:	26 06 f3 15 	mov	0x15f3, r6
    119a:	00 00 
    119c:	2a 06 d4 0f 	mov	0xfd4, r10
    11a0:	00 00 
    11a2:	80 ff 04 00 	jarl	11a6 <_list_test_OK_1+0x5a>, lp
    11a6:	44 fa       	add	4, lp
    11a8:	6a 00       	jmp	[r10]
    11aa:	00 00       	nop	
    11ac:	1d 18       	mov	r29, sp
    11ae:	23 ff 09 00 	ld.w	8[sp], lp
    11b2:	23 ef 05 00 	ld.w	4[sp], r29
    11b6:	4c 1a       	add	12, sp
    11b8:	7f 00       	jmp	[lp]

000011ba <_list_test_OK_2>:
    11ba:	50 1a       	add	-16, sp
    11bc:	63 ff 0d 00 	st.w	lp, 12[sp]
    11c0:	63 ef 09 00 	st.w	r29, 8[sp]
    11c4:	03 e8       	mov	sp, r29
    11c6:	2a 06 86 09 	mov	0x986, r10
    11ca:	00 00 
    11cc:	80 ff 04 00 	jarl	11d0 <_list_test_OK_2+0x16>, lp
    11d0:	44 fa       	add	4, lp
    11d2:	6a 00       	jmp	[r10]
    11d4:	2a 06 ae 09 	mov	0x9ae, r10
    11d8:	00 00 
    11da:	80 ff 04 00 	jarl	11de <_list_test_OK_2+0x24>, lp
    11de:	44 fa       	add	4, lp
    11e0:	6a 00       	jmp	[r10]
    11e2:	7d 57 05 00 	st.w	r10, 4[r29]
    11e6:	3d 57 05 00 	ld.w	4[r29], r10
    11ea:	60 52       	cmp	0, r10
    11ec:	c2 0d       	be	1204 <_list_test_OK_2+0x4a>
    11ee:	26 06 d9 15 	mov	0x15d9, r6
    11f2:	00 00 
    11f4:	2a 06 d4 0f 	mov	0xfd4, r10
    11f8:	00 00 
    11fa:	80 ff 04 00 	jarl	11fe <_list_test_OK_2+0x44>, lp
    11fe:	44 fa       	add	4, lp
    1200:	6a 00       	jmp	[r10]
    1202:	b5 0d       	br	1218 <_list_test_OK_2+0x5e>
    1204:	26 06 f3 15 	mov	0x15f3, r6
    1208:	00 00 
    120a:	2a 06 d4 0f 	mov	0xfd4, r10
    120e:	00 00 
    1210:	80 ff 04 00 	jarl	1214 <_list_test_OK_2+0x5a>, lp
    1214:	44 fa       	add	4, lp
    1216:	6a 00       	jmp	[r10]
    1218:	3d 37 05 00 	ld.w	4[r29], r6
    121c:	2a 06 1c 0a 	mov	0xa1c, r10
    1220:	00 00 
    1222:	80 ff 04 00 	jarl	1226 <_list_test_OK_2+0x6c>, lp
    1226:	44 fa       	add	4, lp
    1228:	6a 00       	jmp	[r10]
    122a:	7d 57 01 00 	st.w	r10, 0[r29]
    122e:	3d 57 01 00 	ld.w	0[r29], r10
    1232:	60 52       	cmp	0, r10
    1234:	ca 0d       	bne	124c <_list_test_OK_2+0x92>
    1236:	26 06 0d 16 	mov	0x160d, r6
    123a:	00 00 
    123c:	2a 06 d4 0f 	mov	0xfd4, r10
    1240:	00 00 
    1242:	80 ff 04 00 	jarl	1246 <_list_test_OK_2+0x8c>, lp
    1246:	44 fa       	add	4, lp
    1248:	6a 00       	jmp	[r10]
    124a:	b5 0d       	br	1260 <_list_test_OK_2+0xa6>
    124c:	26 06 1f 16 	mov	0x161f, r6
    1250:	00 00 
    1252:	2a 06 d4 0f 	mov	0xfd4, r10
    1256:	00 00 
    1258:	80 ff 04 00 	jarl	125c <_list_test_OK_2+0xa2>, lp
    125c:	44 fa       	add	4, lp
    125e:	6a 00       	jmp	[r10]
    1260:	00 00       	nop	
    1262:	1d 18       	mov	r29, sp
    1264:	23 ff 0d 00 	ld.w	12[sp], lp
    1268:	23 ef 09 00 	ld.w	8[sp], r29
    126c:	03 1e 10 00 	addi	16, sp, sp
    1270:	7f 00       	jmp	[lp]

00001272 <_list_test_OK_3>:
    1272:	03 1e e0 ff 	addi	-32, sp, sp
    1276:	63 ff 1d 00 	st.w	lp, 28[sp]
    127a:	63 ef 19 00 	st.w	r29, 24[sp]
    127e:	03 e8       	mov	sp, r29
    1280:	2a 06 86 09 	mov	0x986, r10
    1284:	00 00 
    1286:	80 ff 04 00 	jarl	128a <_list_test_OK_3+0x18>, lp
    128a:	44 fa       	add	4, lp
    128c:	6a 00       	jmp	[r10]
    128e:	7d 07 15 00 	st.w	r0, 20[r29]
    1292:	b5 3d       	br	1308 <_list_test_OK_3+0x96>
    1294:	2a 06 ae 09 	mov	0x9ae, r10
    1298:	00 00 
    129a:	80 ff 04 00 	jarl	129e <_list_test_OK_3+0x2c>, lp
    129e:	44 fa       	add	4, lp
    12a0:	6a 00       	jmp	[r10]
    12a2:	0a 58       	mov	r10, r11
    12a4:	3d 57 15 00 	ld.w	20[r29], r10
    12a8:	c2 52       	shl	2, r10
    12aa:	20 66 18 00 	movea	24, r0, r12
    12ae:	dd 61       	add	r29, r12
    12b0:	cc 51       	add	r12, r10
    12b2:	0a 56 e8 ff 	addi	-24, r10, r10
    12b6:	6a 5f 01 00 	st.w	r11, 0[r10]
    12ba:	3d 57 15 00 	ld.w	20[r29], r10
    12be:	c2 52       	shl	2, r10
    12c0:	20 5e 18 00 	movea	24, r0, r11
    12c4:	dd 59       	add	r29, r11
    12c6:	cb 51       	add	r11, r10
    12c8:	0a 56 e8 ff 	addi	-24, r10, r10
    12cc:	2a 57 01 00 	ld.w	0[r10], r10
    12d0:	60 52       	cmp	0, r10
    12d2:	c2 0d       	be	12ea <_list_test_OK_3+0x78>
    12d4:	26 06 31 16 	mov	0x1631, r6
    12d8:	00 00 
    12da:	2a 06 d4 0f 	mov	0xfd4, r10
    12de:	00 00 
    12e0:	80 ff 04 00 	jarl	12e4 <_list_test_OK_3+0x72>, lp
    12e4:	44 fa       	add	4, lp
    12e6:	6a 00       	jmp	[r10]
    12e8:	b5 0d       	br	12fe <_list_test_OK_3+0x8c>
    12ea:	26 06 4e 16 	mov	0x164e, r6
    12ee:	00 00 
    12f0:	2a 06 d4 0f 	mov	0xfd4, r10
    12f4:	00 00 
    12f6:	80 ff 04 00 	jarl	12fa <_list_test_OK_3+0x88>, lp
    12fa:	44 fa       	add	4, lp
    12fc:	6a 00       	jmp	[r10]
    12fe:	3d 57 15 00 	ld.w	20[r29], r10
    1302:	41 52       	add	1, r10
    1304:	7d 57 15 00 	st.w	r10, 20[r29]
    1308:	3d 57 15 00 	ld.w	20[r29], r10
    130c:	62 52       	cmp	2, r10
    130e:	b7 c5       	ble	1294 <_list_test_OK_3+0x22>
    1310:	2a 06 ae 09 	mov	0x9ae, r10
    1314:	00 00 
    1316:	80 ff 04 00 	jarl	131a <_list_test_OK_3+0xa8>, lp
    131a:	44 fa       	add	4, lp
    131c:	6a 00       	jmp	[r10]
    131e:	7d 57 11 00 	st.w	r10, 16[r29]
    1322:	3d 57 11 00 	ld.w	16[r29], r10
    1326:	60 52       	cmp	0, r10
    1328:	ca 0d       	bne	1340 <_list_test_OK_3+0xce>
    132a:	26 06 6b 16 	mov	0x166b, r6
    132e:	00 00 
    1330:	2a 06 d4 0f 	mov	0xfd4, r10
    1334:	00 00 
    1336:	80 ff 04 00 	jarl	133a <_list_test_OK_3+0xc8>, lp
    133a:	44 fa       	add	4, lp
    133c:	6a 00       	jmp	[r10]
    133e:	b5 0d       	br	1354 <_list_test_OK_3+0xe2>
    1340:	26 06 89 16 	mov	0x1689, r6
    1344:	00 00 
    1346:	2a 06 d4 0f 	mov	0xfd4, r10
    134a:	00 00 
    134c:	80 ff 04 00 	jarl	1350 <_list_test_OK_3+0xde>, lp
    1350:	44 fa       	add	4, lp
    1352:	6a 00       	jmp	[r10]
    1354:	7d 07 15 00 	st.w	r0, 20[r29]
    1358:	c5 35       	br	13c0 <_list_test_OK_3+0x14e>
    135a:	3d 57 15 00 	ld.w	20[r29], r10
    135e:	c2 52       	shl	2, r10
    1360:	20 66 18 00 	movea	24, r0, r12
    1364:	dd 61       	add	r29, r12
    1366:	cc 51       	add	r12, r10
    1368:	0a 56 e8 ff 	addi	-24, r10, r10
    136c:	2a 57 01 00 	ld.w	0[r10], r10
    1370:	0a 30       	mov	r10, r6
    1372:	2a 06 1c 0a 	mov	0xa1c, r10
    1376:	00 00 
    1378:	80 ff 04 00 	jarl	137c <_list_test_OK_3+0x10a>, lp
    137c:	44 fa       	add	4, lp
    137e:	6a 00       	jmp	[r10]
    1380:	7d 57 0d 00 	st.w	r10, 12[r29]
    1384:	3d 57 0d 00 	ld.w	12[r29], r10
    1388:	60 52       	cmp	0, r10
    138a:	ca 0d       	bne	13a2 <_list_test_OK_3+0x130>
    138c:	26 06 0d 16 	mov	0x160d, r6
    1390:	00 00 
    1392:	2a 06 d4 0f 	mov	0xfd4, r10
    1396:	00 00 
    1398:	80 ff 04 00 	jarl	139c <_list_test_OK_3+0x12a>, lp
    139c:	44 fa       	add	4, lp
    139e:	6a 00       	jmp	[r10]
    13a0:	b5 0d       	br	13b6 <_list_test_OK_3+0x144>
    13a2:	26 06 1f 16 	mov	0x161f, r6
    13a6:	00 00 
    13a8:	2a 06 d4 0f 	mov	0xfd4, r10
    13ac:	00 00 
    13ae:	80 ff 04 00 	jarl	13b2 <_list_test_OK_3+0x140>, lp
    13b2:	44 fa       	add	4, lp
    13b4:	6a 00       	jmp	[r10]
    13b6:	3d 57 15 00 	ld.w	20[r29], r10
    13ba:	41 52       	add	1, r10
    13bc:	7d 57 15 00 	st.w	r10, 20[r29]
    13c0:	3d 57 15 00 	ld.w	20[r29], r10
    13c4:	62 52       	cmp	2, r10
    13c6:	a7 cd       	ble	135a <_list_test_OK_3+0xe8>
    13c8:	00 00       	nop	
    13ca:	1d 18       	mov	r29, sp
    13cc:	23 ff 1d 00 	ld.w	28[sp], lp
    13d0:	23 ef 19 00 	ld.w	24[sp], r29
    13d4:	03 1e 20 00 	addi	32, sp, sp
    13d8:	7f 00       	jmp	[lp]

000013da <_test_print>:
    13da:	54 1a       	add	-12, sp
    13dc:	63 ef 09 00 	st.w	r29, 8[sp]
    13e0:	03 e8       	mov	sp, r29
    13e2:	7d 37 01 00 	st.w	r6, 0[r29]
    13e6:	7d 07 05 00 	st.w	r0, 4[r29]
    13ea:	c5 15       	br	1412 <_test_print+0x38>
    13ec:	20 56 07 fa 	movea	-1529, r0, r10
    13f0:	3d 5f 05 00 	ld.w	4[r29], r11
    13f4:	3d 67 01 00 	ld.w	0[r29], r12
    13f8:	cc 59       	add	r12, r11
    13fa:	0b 5f 00 00 	ld.b	0[r11], r11
    13fe:	d8 5a       	shl	24, r11
    1400:	b8 5a       	sar	24, r11
    1402:	8b 00       	zxb	r11
    1404:	4a 5f 00 00 	st.b	r11, 0[r10]
    1408:	3d 57 05 00 	ld.w	4[r29], r10
    140c:	41 52       	add	1, r10
    140e:	7d 57 05 00 	st.w	r10, 4[r29]
    1412:	3d 57 05 00 	ld.w	4[r29], r10
    1416:	3d 5f 01 00 	ld.w	0[r29], r11
    141a:	cb 51       	add	r11, r10
    141c:	0a 57 00 00 	ld.b	0[r10], r10
    1420:	d8 52       	shl	24, r10
    1422:	b8 52       	sar	24, r10
    1424:	60 52       	cmp	0, r10
    1426:	ba e5       	bne	13ec <_test_print+0x12>
    1428:	20 56 07 fa 	movea	-1529, r0, r10
    142c:	0a 5a       	mov	10, r11
    142e:	4a 5f 00 00 	st.b	r11, 0[r10]
    1432:	1d 18       	mov	r29, sp
    1434:	23 ef 09 00 	ld.w	8[sp], r29
    1438:	4c 1a       	add	12, sp
    143a:	7f 00       	jmp	[lp]

0000143c <_test_suite>:
    143c:	58 1a       	add	-8, sp
    143e:	63 ff 05 00 	st.w	lp, 4[sp]
    1442:	63 ef 01 00 	st.w	r29, 0[sp]
    1446:	03 e8       	mov	sp, r29
    1448:	2a 06 a0 14 	mov	0x14a0, r10
    144c:	00 00 
    144e:	80 ff 04 00 	jarl	1452 <_test_suite+0x16>, lp
    1452:	44 fa       	add	4, lp
    1454:	6a 00       	jmp	[r10]
    1456:	60 52       	cmp	0, r10
    1458:	ca 0d       	bne	1470 <_test_suite+0x34>
    145a:	26 06 a7 16 	mov	0x16a7, r6
    145e:	00 00 
    1460:	2a 06 da 13 	mov	0x13da, r10
    1464:	00 00 
    1466:	80 ff 04 00 	jarl	146a <_test_suite+0x2e>, lp
    146a:	44 fa       	add	4, lp
    146c:	6a 00       	jmp	[r10]
    146e:	b5 0d       	br	1484 <_test_suite+0x48>
    1470:	26 06 bf 16 	mov	0x16bf, r6
    1474:	00 00 
    1476:	2a 06 da 13 	mov	0x13da, r10
    147a:	00 00 
    147c:	80 ff 04 00 	jarl	1480 <_test_suite+0x44>, lp
    1480:	44 fa       	add	4, lp
    1482:	6a 00       	jmp	[r10]
    1484:	00 00       	nop	
    1486:	1d 18       	mov	r29, sp
    1488:	23 ff 05 00 	ld.w	4[sp], lp
    148c:	23 ef 01 00 	ld.w	0[sp], r29
    1490:	48 1a       	add	8, sp
    1492:	7f 00       	jmp	[lp]
	...

000014a0 <_do_test_add1_1>:
    14a0:	03 1e ec ff 	addi	-20, sp, sp
    14a4:	63 a7 01 00 	st.w	r20, 0[sp]
    14a8:	63 af 05 00 	st.w	r21, 4[sp]
    14ac:	63 b7 09 00 	st.w	r22, 8[sp]
    14b0:	63 bf 0d 00 	st.w	r23, 12[sp]
    14b4:	63 c7 11 00 	st.w	r24, 16[sp]
    14b8:	1f 52       	mov	-1, r10
    14ba:	00 a2       	mov	0, r20
    14bc:	00 aa       	mov	0, r21
    14be:	00 b2       	mov	0, r22
    14c0:	01 c2       	mov	1, r24
    14c2:	e0 2f 20 00 	ldsr	r0, psw/vmtid
    14c6:	d4 a9       	add	r20, r21
    14c8:	e5 bf 40 00 	stsr	psw/vmtid, r23
    14cc:	f5 b1       	cmp	r21, r22
    14ce:	ca 05       	bne	14d6 <add1_0_test_fail>
    14d0:	f7 c1       	cmp	r23, r24
    14d2:	aa 05       	bne	14d6 <add1_0_test_fail>
    14d4:	00 50       	mov	r0, r10

000014d6 <add1_0_test_fail>:
    14d6:	23 a7 01 00 	ld.w	0[sp], r20
    14da:	23 af 05 00 	ld.w	4[sp], r21
    14de:	23 b7 09 00 	ld.w	8[sp], r22
    14e2:	23 bf 0d 00 	ld.w	12[sp], r23
    14e6:	23 c7 11 00 	ld.w	16[sp], r24
    14ea:	03 1e 14 00 	addi	20, sp, sp
    14ee:	7f 00       	jmp	[lp]
