
test_main.elf:     file format elf32-v850-rh850


Disassembly of section .vector:

00000000 <__reset>:
   0:	80 07 d0 07 	jr	7d0 <_start>
	...
  10:	80 07 e0 07 	jr	7f0 <_default_int_handler>
	...
  20:	80 07 d0 07 	jr	7f0 <_default_int_handler>
	...
  40:	80 07 b0 07 	jr	7f0 <_default_int_handler>
	...
  50:	80 07 a0 07 	jr	7f0 <_default_int_handler>
	...
  60:	80 07 90 07 	jr	7f0 <_default_int_handler>
	...
  80:	80 07 70 07 	jr	7f0 <_default_int_handler>
	...
  90:	80 07 60 07 	jr	7f0 <_default_int_handler>
	...
  a0:	80 07 50 07 	jr	7f0 <_default_int_handler>
	...
  b0:	80 07 40 07 	jr	7f0 <_default_int_handler>
	...
  c0:	80 07 30 07 	jr	7f0 <_default_int_handler>
	...
  d0:	80 07 20 07 	jr	7f0 <_default_int_handler>
	...
  e0:	80 07 10 07 	jr	7f0 <_default_int_handler>
	...
  f0:	80 07 00 07 	jr	7f0 <_default_int_handler>
	...
 100:	80 07 f0 06 	jr	7f0 <_default_int_handler>
	...
 110:	80 07 e0 06 	jr	7f0 <_default_int_handler>
	...
 120:	80 07 d0 06 	jr	7f0 <_default_int_handler>
	...
 130:	80 07 c0 06 	jr	7f0 <_default_int_handler>
	...
 140:	80 07 b0 06 	jr	7f0 <_default_int_handler>
	...
 150:	80 07 a0 06 	jr	7f0 <_default_int_handler>
	...
 160:	80 07 90 06 	jr	7f0 <_default_int_handler>
	...
 170:	80 07 80 06 	jr	7f0 <_default_int_handler>
	...
 180:	80 07 70 06 	jr	7f0 <_default_int_handler>
	...
 190:	80 07 60 06 	jr	7f0 <_default_int_handler>
	...
 1a0:	80 07 50 06 	jr	7f0 <_default_int_handler>
	...
 1b0:	80 07 40 06 	jr	7f0 <_default_int_handler>
	...
 1c0:	80 07 30 06 	jr	7f0 <_default_int_handler>
	...
 1d0:	80 07 20 06 	jr	7f0 <_default_int_handler>
	...
 1e0:	80 07 10 06 	jr	7f0 <_default_int_handler>
	...
 1f0:	80 07 00 06 	jr	7f0 <_default_int_handler>
	...
 200:	80 07 f0 05 	jr	7f0 <_default_int_handler>
	...
 210:	80 07 e0 05 	jr	7f0 <_default_int_handler>
	...
 220:	80 07 d0 05 	jr	7f0 <_default_int_handler>
	...
 230:	80 07 c0 05 	jr	7f0 <_default_int_handler>
	...
 240:	80 07 b0 05 	jr	7f0 <_default_int_handler>
	...
 250:	80 07 a0 05 	jr	7f0 <_default_int_handler>
	...
 260:	80 07 90 05 	jr	7f0 <_default_int_handler>
	...
 270:	80 07 80 05 	jr	7f0 <_default_int_handler>
	...
 280:	80 07 70 05 	jr	7f0 <_default_int_handler>
	...
 290:	80 07 60 05 	jr	7f0 <_default_int_handler>
	...
 2a0:	80 07 50 05 	jr	7f0 <_default_int_handler>
	...
 2b0:	80 07 40 05 	jr	7f0 <_default_int_handler>
	...
 2c0:	80 07 30 05 	jr	7f0 <_default_int_handler>
	...
 2d0:	80 07 20 05 	jr	7f0 <_default_int_handler>
	...
 2e0:	80 07 10 05 	jr	7f0 <_default_int_handler>
	...
 2f0:	80 07 00 05 	jr	7f0 <_default_int_handler>
	...
 300:	80 07 f0 04 	jr	7f0 <_default_int_handler>
	...
 310:	80 07 e0 04 	jr	7f0 <_default_int_handler>
	...
 320:	80 07 d0 04 	jr	7f0 <_default_int_handler>
	...
 330:	80 07 c0 04 	jr	7f0 <_default_int_handler>
	...
 340:	80 07 b0 04 	jr	7f0 <_default_int_handler>
	...
 350:	80 07 a0 04 	jr	7f0 <_default_int_handler>
	...
 360:	80 07 90 04 	jr	7f0 <_default_int_handler>
	...
 370:	80 07 80 04 	jr	7f0 <_default_int_handler>
	...
 380:	80 07 70 04 	jr	7f0 <_default_int_handler>
	...
 390:	80 07 60 04 	jr	7f0 <_default_int_handler>
	...
 3a0:	80 07 50 04 	jr	7f0 <_default_int_handler>
	...
 3b0:	80 07 40 04 	jr	7f0 <_default_int_handler>
	...
 3c0:	80 07 30 04 	jr	7f0 <_default_int_handler>
	...
 3d0:	80 07 20 04 	jr	7f0 <_default_int_handler>
	...
 3e0:	80 07 10 04 	jr	7f0 <_default_int_handler>
	...
 3f0:	80 07 00 04 	jr	7f0 <_default_int_handler>
	...
 400:	80 07 f0 03 	jr	7f0 <_default_int_handler>
	...
 410:	80 07 e0 03 	jr	7f0 <_default_int_handler>
	...
 420:	80 07 d0 03 	jr	7f0 <_default_int_handler>
	...
 430:	80 07 c0 03 	jr	7f0 <_default_int_handler>
	...
 440:	80 07 b0 03 	jr	7f0 <_default_int_handler>
	...
 450:	80 07 a0 03 	jr	7f0 <_default_int_handler>
	...
 460:	80 07 90 03 	jr	7f0 <_default_int_handler>
	...
 470:	80 07 80 03 	jr	7f0 <_default_int_handler>
	...
 480:	80 07 70 03 	jr	7f0 <_default_int_handler>
	...
 490:	80 07 60 03 	jr	7f0 <_default_int_handler>
	...
 4a0:	80 07 50 03 	jr	7f0 <_default_int_handler>
	...
 4b0:	80 07 40 03 	jr	7f0 <_default_int_handler>
	...
 4c0:	80 07 30 03 	jr	7f0 <_default_int_handler>
	...
 4d0:	80 07 20 03 	jr	7f0 <_default_int_handler>
	...
 4e0:	80 07 10 03 	jr	7f0 <_default_int_handler>
	...
 4f0:	80 07 00 03 	jr	7f0 <_default_int_handler>
	...
 500:	80 07 f0 02 	jr	7f0 <_default_int_handler>
	...
 510:	80 07 e0 02 	jr	7f0 <_default_int_handler>
	...
 520:	80 07 d0 02 	jr	7f0 <_default_int_handler>
	...
 530:	80 07 c0 02 	jr	7f0 <_default_int_handler>
	...
 540:	80 07 b0 02 	jr	7f0 <_default_int_handler>
	...
 550:	80 07 a0 02 	jr	7f0 <_default_int_handler>
	...
 560:	80 07 90 02 	jr	7f0 <_default_int_handler>
	...
 570:	80 07 80 02 	jr	7f0 <_default_int_handler>
	...
 580:	80 07 70 02 	jr	7f0 <_default_int_handler>
	...
 590:	80 07 60 02 	jr	7f0 <_default_int_handler>
	...
 5a0:	80 07 50 02 	jr	7f0 <_default_int_handler>
	...
 5b0:	80 07 40 02 	jr	7f0 <_default_int_handler>
	...
 5c0:	80 07 30 02 	jr	7f0 <_default_int_handler>
	...
 5d0:	80 07 20 02 	jr	7f0 <_default_int_handler>
	...
 5e0:	80 07 10 02 	jr	7f0 <_default_int_handler>
	...
 5f0:	80 07 00 02 	jr	7f0 <_default_int_handler>
	...
 600:	80 07 f0 01 	jr	7f0 <_default_int_handler>
	...
 610:	80 07 e0 01 	jr	7f0 <_default_int_handler>
	...
 620:	80 07 d0 01 	jr	7f0 <_default_int_handler>
	...
 630:	80 07 c0 01 	jr	7f0 <_default_int_handler>
	...
 640:	80 07 b0 01 	jr	7f0 <_default_int_handler>
	...
 650:	80 07 a0 01 	jr	7f0 <_default_int_handler>
	...
 660:	80 07 90 01 	jr	7f0 <_default_int_handler>
	...
 670:	80 07 80 01 	jr	7f0 <_default_int_handler>
	...
 680:	80 07 70 01 	jr	7f0 <_default_int_handler>
	...
 690:	80 07 60 01 	jr	7f0 <_default_int_handler>
	...
 6a0:	80 07 50 01 	jr	7f0 <_default_int_handler>
	...
 6b0:	80 07 40 01 	jr	7f0 <_default_int_handler>
	...
 6c0:	80 07 30 01 	jr	7f0 <_default_int_handler>
	...
 6d0:	80 07 20 01 	jr	7f0 <_default_int_handler>
	...
 6e0:	80 07 10 01 	jr	7f0 <_default_int_handler>
	...
 6f0:	80 07 00 01 	jr	7f0 <_default_int_handler>
	...
 700:	80 07 f0 00 	jr	7f0 <_default_int_handler>
	...
 710:	80 07 e0 00 	jr	7f0 <_default_int_handler>
	...
 720:	80 07 d0 00 	jr	7f0 <_default_int_handler>
	...
 730:	80 07 c0 00 	jr	7f0 <_default_int_handler>
	...
 740:	80 07 b0 00 	jr	7f0 <_default_int_handler>
	...
 750:	80 07 a0 00 	jr	7f0 <_default_int_handler>
	...
 760:	80 07 90 00 	jr	7f0 <_default_int_handler>
	...
 770:	80 07 80 00 	jr	7f0 <_default_int_handler>
	...
 780:	80 07 70 00 	jr	7f0 <_default_int_handler>
	...
 790:	80 07 60 00 	jr	7f0 <_default_int_handler>
	...
 7a0:	80 07 50 00 	jr	7f0 <_default_int_handler>
	...
 7b0:	80 07 40 00 	jr	7f0 <_default_int_handler>
	...
 7c0:	80 07 30 00 	jr	7f0 <_default_int_handler>
	...

Disassembly of section .text:

000007d0 <_start>:
     7d0:	e0 07 60 01 	di	
     7d4:	40 1e ff 06 	movhi	1791, r0, sp
     7d8:	23 1e 00 70 	movea	28672, sp, sp
     7dc:	03 1e 00 04 	addi	1024, sp, sp
     7e0:	80 ff f0 00 	jarl	8d0 <_bss_clear>, lp
     7e4:	80 ff 36 01 	jarl	91a <_data_init>, lp
     7e8:	e0 87 60 01 	ei	
     7ec:	80 ff 6e 00 	jarl	85a <_main>, lp

000007f0 <_default_int_handler>:
     7f0:	85 05       	br	7f0 <_default_int_handler>
	...

00000800 <_test_print>:
     800:	5c 1a       	add	-4, sp
     802:	63 ef 01 00 	st.w	r29, 0[sp]
     806:	58 1a       	add	-8, sp
     808:	03 e8       	mov	sp, r29
     80a:	7d 37 01 00 	st.w	r6, 0[r29]
     80e:	7d 07 05 00 	st.w	r0, 4[r29]
     812:	c5 15       	br	83a <_test_print+0x3a>
     814:	20 56 07 fa 	movea	-1529, r0, r10
     818:	3d 5f 05 00 	ld.w	4[r29], r11
     81c:	3d 67 01 00 	ld.w	0[r29], r12
     820:	cc 59       	add	r12, r11
     822:	0b 5f 00 00 	ld.b	0[r11], r11
     826:	d8 5a       	shl	24, r11
     828:	b8 5a       	sar	24, r11
     82a:	8b 00       	zxb	r11
     82c:	4a 5f 00 00 	st.b	r11, 0[r10]
     830:	3d 57 05 00 	ld.w	4[r29], r10
     834:	41 52       	add	1, r10
     836:	7d 57 05 00 	st.w	r10, 4[r29]
     83a:	3d 57 05 00 	ld.w	4[r29], r10
     83e:	3d 5f 01 00 	ld.w	0[r29], r11
     842:	cb 51       	add	r11, r10
     844:	0a 57 00 00 	ld.b	0[r10], r10
     848:	d8 52       	shl	24, r10
     84a:	b8 52       	sar	24, r10
     84c:	60 52       	cmp	0, r10
     84e:	ba e5       	bne	814 <_test_print+0x14>
     850:	1d 18       	mov	r29, sp
     852:	23 ef 09 00 	ld.w	8[sp], r29
     856:	4c 1a       	add	12, sp
     858:	7f 00       	jmp	[lp]

0000085a <_main>:
     85a:	58 1a       	add	-8, sp
     85c:	63 ff 05 00 	st.w	lp, 4[sp]
     860:	63 ef 01 00 	st.w	r29, 0[sp]
     864:	03 e8       	mov	sp, r29
     866:	2a 06 e6 13 	mov	0x13e6, r10
     86a:	00 00 
     86c:	80 ff 04 00 	jarl	870 <_main+0x16>, lp
     870:	44 fa       	add	4, lp
     872:	6a 00       	jmp	[r10]
     874:	2a 06 9a 14 	mov	0x149a, r10
     878:	00 00 
     87a:	80 ff 04 00 	jarl	87e <_main+0x24>, lp
     87e:	44 fa       	add	4, lp
     880:	6a 00       	jmp	[r10]
     882:	2a 06 10 15 	mov	0x1510, r10
     886:	00 00 
     888:	80 ff 04 00 	jarl	88c <_main+0x32>, lp
     88c:	44 fa       	add	4, lp
     88e:	6a 00       	jmp	[r10]
     890:	2a 06 8a 16 	mov	0x168a, r10
     894:	00 00 
     896:	80 ff 04 00 	jarl	89a <_main+0x40>, lp
     89a:	44 fa       	add	4, lp
     89c:	6a 00       	jmp	[r10]
     89e:	2a 06 02 17 	mov	0x1702, r10
     8a2:	00 00 
     8a4:	80 ff 04 00 	jarl	8a8 <_main+0x4e>, lp
     8a8:	44 fa       	add	4, lp
     8aa:	6a 00       	jmp	[r10]
     8ac:	2a 06 cc 17 	mov	0x17cc, r10
     8b0:	00 00 
     8b2:	80 ff 04 00 	jarl	8b6 <_main+0x5c>, lp
     8b6:	44 fa       	add	4, lp
     8b8:	6a 00       	jmp	[r10]
     8ba:	26 06 64 1a 	mov	0x1a64, r6
     8be:	00 00 
     8c0:	2a 06 00 08 	mov	0x800, r10
     8c4:	00 00 
     8c6:	80 ff 04 00 	jarl	8ca <_main+0x70>, lp
     8ca:	44 fa       	add	4, lp
     8cc:	6a 00       	jmp	[r10]
     8ce:	85 05       	br	8ce <_main+0x74>

000008d0 <_bss_clear>:
     8d0:	5c 1a       	add	-4, sp
     8d2:	63 ef 01 00 	st.w	r29, 0[sp]
     8d6:	58 1a       	add	-8, sp
     8d8:	03 e8       	mov	sp, r29
     8da:	2a 06 00 74 	mov	0x6ff7400, r10
     8de:	ff 06 
     8e0:	7d 57 05 00 	st.w	r10, 4[r29]
     8e4:	2a 06 88 74 	mov	0x6ff7488, r10
     8e8:	ff 06 
     8ea:	7d 57 01 00 	st.w	r10, 0[r29]
     8ee:	a5 0d       	br	902 <_bss_clear+0x32>
     8f0:	3d 57 05 00 	ld.w	4[r29], r10
     8f4:	4a 07 00 00 	st.b	r0, 0[r10]
     8f8:	3d 57 05 00 	ld.w	4[r29], r10
     8fc:	41 52       	add	1, r10
     8fe:	7d 57 05 00 	st.w	r10, 4[r29]
     902:	3d 5f 05 00 	ld.w	4[r29], r11
     906:	3d 57 01 00 	ld.w	0[r29], r10
     90a:	ea 59       	cmp	r10, r11
     90c:	a1 f5       	bl	8f0 <_bss_clear+0x20>
     90e:	00 00       	nop	
     910:	1d 18       	mov	r29, sp
     912:	23 ef 09 00 	ld.w	8[sp], r29
     916:	4c 1a       	add	12, sp
     918:	7f 00       	jmp	[lp]

0000091a <_data_init>:
     91a:	5c 1a       	add	-4, sp
     91c:	63 ef 01 00 	st.w	r29, 0[sp]
     920:	54 1a       	add	-12, sp
     922:	03 e8       	mov	sp, r29
     924:	2a 06 d4 1d 	mov	0x1dd4, r10
     928:	00 00 
     92a:	7d 57 09 00 	st.w	r10, 8[r29]
     92e:	2a 06 d4 1d 	mov	0x1dd4, r10
     932:	00 00 
     934:	7d 57 01 00 	st.w	r10, 0[r29]
     938:	2a 06 00 70 	mov	0x6ff7000, r10
     93c:	ff 06 
     93e:	7d 57 05 00 	st.w	r10, 4[r29]
     942:	b5 15       	br	968 <_data_init+0x4e>
     944:	3d 57 09 00 	ld.w	8[r29], r10
     948:	8a 5f 01 00 	ld.bu	0[r10], r11
     94c:	3d 57 05 00 	ld.w	4[r29], r10
     950:	4a 5f 00 00 	st.b	r11, 0[r10]
     954:	3d 57 05 00 	ld.w	4[r29], r10
     958:	41 52       	add	1, r10
     95a:	7d 57 05 00 	st.w	r10, 4[r29]
     95e:	3d 57 09 00 	ld.w	8[r29], r10
     962:	41 52       	add	1, r10
     964:	7d 57 09 00 	st.w	r10, 8[r29]
     968:	3d 5f 09 00 	ld.w	8[r29], r11
     96c:	3d 57 01 00 	ld.w	0[r29], r10
     970:	ea 59       	cmp	r10, r11
     972:	91 ed       	bl	944 <_data_init+0x2a>
     974:	1d 18       	mov	r29, sp
     976:	23 ef 0d 00 	ld.w	12[sp], r29
     97a:	03 1e 10 00 	addi	16, sp, sp
     97e:	7f 00       	jmp	[lp]

00000980 <_list_init>:
     980:	58 1a       	add	-8, sp
     982:	63 ff 05 00 	st.w	lp, 4[sp]
     986:	63 ef 01 00 	st.w	r29, 0[sp]
     98a:	03 e8       	mov	sp, r29
     98c:	2a 06 58 0c 	mov	0xc58, r10
     990:	00 00 
     992:	80 ff 04 00 	jarl	996 <_list_init+0x16>, lp
     996:	44 fa       	add	4, lp
     998:	6a 00       	jmp	[r10]
     99a:	1d 18       	mov	r29, sp
     99c:	23 ff 05 00 	ld.w	4[sp], lp
     9a0:	23 ef 01 00 	ld.w	0[sp], r29
     9a4:	48 1a       	add	8, sp
     9a6:	7f 00       	jmp	[lp]

000009a8 <_my_alloc>:
     9a8:	58 1a       	add	-8, sp
     9aa:	63 ff 05 00 	st.w	lp, 4[sp]
     9ae:	63 ef 01 00 	st.w	r29, 0[sp]
     9b2:	5c 1a       	add	-4, sp
     9b4:	03 e8       	mov	sp, r29
     9b6:	2a 06 08 74 	mov	0x6ff7408, r10
     9ba:	ff 06 
     9bc:	2a 57 01 00 	ld.w	0[r10], r10
     9c0:	60 52       	cmp	0, r10
     9c2:	ba 05       	bne	9c8 <_my_alloc+0x20>
     9c4:	00 52       	mov	0, r10
     9c6:	b5 25       	br	a0c <_my_alloc+0x64>
     9c8:	26 06 08 74 	mov	0x6ff7408, r6
     9cc:	ff 06 
     9ce:	2a 06 9a 0e 	mov	0xe9a, r10
     9d2:	00 00 
     9d4:	80 ff 04 00 	jarl	9d8 <_my_alloc+0x30>, lp
     9d8:	44 fa       	add	4, lp
     9da:	6a 00       	jmp	[r10]
     9dc:	7d 57 01 00 	st.w	r10, 0[r29]
     9e0:	3d 57 01 00 	ld.w	0[r29], r10
     9e4:	60 52       	cmp	0, r10
     9e6:	ba 05       	bne	9ec <_my_alloc+0x44>
     9e8:	00 52       	mov	0, r10
     9ea:	95 15       	br	a0c <_my_alloc+0x64>
     9ec:	26 06 54 74 	mov	0x6ff7454, r6
     9f0:	ff 06 
     9f2:	3d 3f 01 00 	ld.w	0[r29], r7
     9f6:	2a 06 a2 0f 	mov	0xfa2, r10
     9fa:	00 00 
     9fc:	80 ff 04 00 	jarl	a00 <_my_alloc+0x58>, lp
     a00:	44 fa       	add	4, lp
     a02:	6a 00       	jmp	[r10]
     a04:	3d 57 01 00 	ld.w	0[r29], r10
     a08:	2a 57 09 00 	ld.w	8[r10], r10
     a0c:	1d 18       	mov	r29, sp
     a0e:	23 ff 09 00 	ld.w	8[sp], lp
     a12:	23 ef 05 00 	ld.w	4[sp], r29
     a16:	4c 1a       	add	12, sp
     a18:	7f 00       	jmp	[lp]

00000a1a <_my_free>:
     a1a:	58 1a       	add	-8, sp
     a1c:	63 ff 05 00 	st.w	lp, 4[sp]
     a20:	63 ef 01 00 	st.w	r29, 0[sp]
     a24:	58 1a       	add	-8, sp
     a26:	03 e8       	mov	sp, r29
     a28:	7d 37 01 00 	st.w	r6, 0[r29]
     a2c:	3d 37 01 00 	ld.w	0[r29], r6
     a30:	2a 06 6c 11 	mov	0x116c, r10
     a34:	00 00 
     a36:	80 ff 04 00 	jarl	a3a <_my_free+0x20>, lp
     a3a:	44 fa       	add	4, lp
     a3c:	6a 00       	jmp	[r10]
     a3e:	7d 57 05 00 	st.w	r10, 4[r29]
     a42:	3d 57 05 00 	ld.w	4[r29], r10
     a46:	2a 5f 09 00 	ld.w	8[r10], r11
     a4a:	3d 57 01 00 	ld.w	0[r29], r10
     a4e:	ea 59       	cmp	r10, r11
     a50:	b2 05       	be	a56 <_my_free+0x3c>
     a52:	1f 52       	mov	-1, r10
     a54:	85 25       	br	a94 <_my_free+0x7a>
     a56:	3d 57 05 00 	ld.w	4[r29], r10
     a5a:	60 52       	cmp	0, r10
     a5c:	ba 05       	bne	a62 <_my_free+0x48>
     a5e:	1f 52       	mov	-1, r10
     a60:	a5 1d       	br	a94 <_my_free+0x7a>
     a62:	26 06 54 74 	mov	0x6ff7454, r6
     a66:	ff 06 
     a68:	3d 3f 05 00 	ld.w	4[r29], r7
     a6c:	2a 06 ea 0d 	mov	0xdea, r10
     a70:	00 00 
     a72:	80 ff 04 00 	jarl	a76 <_my_free+0x5c>, lp
     a76:	44 fa       	add	4, lp
     a78:	6a 00       	jmp	[r10]
     a7a:	26 06 08 74 	mov	0x6ff7408, r6
     a7e:	ff 06 
     a80:	3d 3f 05 00 	ld.w	4[r29], r7
     a84:	2a 06 a2 0f 	mov	0xfa2, r10
     a88:	00 00 
     a8a:	80 ff 04 00 	jarl	a8e <_my_free+0x74>, lp
     a8e:	44 fa       	add	4, lp
     a90:	6a 00       	jmp	[r10]
     a92:	00 52       	mov	0, r10
     a94:	1d 18       	mov	r29, sp
     a96:	23 ff 0d 00 	ld.w	12[sp], lp
     a9a:	23 ef 09 00 	ld.w	8[sp], r29
     a9e:	03 1e 10 00 	addi	16, sp, sp
     aa2:	7f 00       	jmp	[lp]

00000aa4 <_test_print>:
     aa4:	5c 1a       	add	-4, sp
     aa6:	63 ef 01 00 	st.w	r29, 0[sp]
     aaa:	58 1a       	add	-8, sp
     aac:	03 e8       	mov	sp, r29
     aae:	7d 37 01 00 	st.w	r6, 0[r29]
     ab2:	7d 07 05 00 	st.w	r0, 4[r29]
     ab6:	c5 15       	br	ade <_test_print+0x3a>
     ab8:	20 56 07 fa 	movea	-1529, r0, r10
     abc:	3d 5f 05 00 	ld.w	4[r29], r11
     ac0:	3d 67 01 00 	ld.w	0[r29], r12
     ac4:	cc 59       	add	r12, r11
     ac6:	0b 5f 00 00 	ld.b	0[r11], r11
     aca:	d8 5a       	shl	24, r11
     acc:	b8 5a       	sar	24, r11
     ace:	8b 00       	zxb	r11
     ad0:	4a 5f 00 00 	st.b	r11, 0[r10]
     ad4:	3d 57 05 00 	ld.w	4[r29], r10
     ad8:	41 52       	add	1, r10
     ada:	7d 57 05 00 	st.w	r10, 4[r29]
     ade:	3d 57 05 00 	ld.w	4[r29], r10
     ae2:	3d 5f 01 00 	ld.w	0[r29], r11
     ae6:	cb 51       	add	r11, r10
     ae8:	0a 57 00 00 	ld.b	0[r10], r10
     aec:	d8 52       	shl	24, r10
     aee:	b8 52       	sar	24, r10
     af0:	60 52       	cmp	0, r10
     af2:	ba e5       	bne	ab8 <_test_print+0x14>
     af4:	1d 18       	mov	r29, sp
     af6:	23 ef 09 00 	ld.w	8[sp], r29
     afa:	4c 1a       	add	12, sp
     afc:	7f 00       	jmp	[lp]

00000afe <_get_lineno>:
     afe:	5c 1a       	add	-4, sp
     b00:	63 ef 01 00 	st.w	r29, 0[sp]
     b04:	03 1e ec ff 	addi	-20, sp, sp
     b08:	03 e8       	mov	sp, r29
     b0a:	7d 37 01 00 	st.w	r6, 0[r29]
     b0e:	7d 07 0d 00 	st.w	r0, 12[r29]
     b12:	3d 57 01 00 	ld.w	0[r29], r10
     b16:	7d 57 09 00 	st.w	r10, 8[r29]
     b1a:	7d 07 0d 00 	st.w	r0, 12[r29]
     b1e:	e5 0d       	br	b3a <_get_lineno+0x3c>
     b20:	2b 06 0c 74 	mov	0x6ff740c, r11
     b24:	ff 06 
     b26:	3d 57 0d 00 	ld.w	12[r29], r10
     b2a:	cb 51       	add	r11, r10
     b2c:	4a 07 00 00 	st.b	r0, 0[r10]
     b30:	3d 57 0d 00 	ld.w	12[r29], r10
     b34:	41 52       	add	1, r10
     b36:	7d 57 0d 00 	st.w	r10, 12[r29]
     b3a:	3d 57 0d 00 	ld.w	12[r29], r10
     b3e:	67 52       	cmp	7, r10
     b40:	87 f5       	ble	b20 <_get_lineno+0x22>
     b42:	7d 07 0d 00 	st.w	r0, 12[r29]
     b46:	04 52       	mov	4, r10
     b48:	7d 57 11 00 	st.w	r10, 16[r29]
     b4c:	f5 45       	br	bda <_get_lineno+0xdc>
     b4e:	2b 06 74 1a 	mov	0x1a74, r11
     b52:	00 00 
     b54:	3d 57 11 00 	ld.w	16[r29], r10
     b58:	c2 52       	shl	2, r10
     b5a:	cb 51       	add	r11, r10
     b5c:	2a 57 01 00 	ld.w	0[r10], r10
     b60:	3d 5f 09 00 	ld.w	8[r29], r11
     b64:	0b 60       	mov	r11, r12
     b66:	ea 67 fc 5a 	divq	r10, r12, r11
     b6a:	0c 50       	mov	r12, r10
     b6c:	7d 57 05 00 	st.w	r10, 4[r29]
     b70:	3d 57 0d 00 	ld.w	12[r29], r10
     b74:	60 52       	cmp	0, r10
     b76:	df 05       	bgt	b80 <_get_lineno+0x82>
     b78:	3d 57 05 00 	ld.w	4[r29], r10
     b7c:	60 52       	cmp	0, r10
     b7e:	f7 15       	ble	bac <_get_lineno+0xae>
     b80:	3d 57 05 00 	ld.w	4[r29], r10
     b84:	8a 00       	zxb	r10
     b86:	0a 56 30 00 	addi	48, r10, r10
     b8a:	8a 00       	zxb	r10
     b8c:	d8 52       	shl	24, r10
     b8e:	0a 60       	mov	r10, r12
     b90:	b8 62       	sar	24, r12
     b92:	2b 06 0c 74 	mov	0x6ff740c, r11
     b96:	ff 06 
     b98:	3d 57 0d 00 	ld.w	12[r29], r10
     b9c:	cb 51       	add	r11, r10
     b9e:	4a 67 00 00 	st.b	r12, 0[r10]
     ba2:	3d 57 0d 00 	ld.w	12[r29], r10
     ba6:	41 52       	add	1, r10
     ba8:	7d 57 0d 00 	st.w	r10, 12[r29]
     bac:	2b 06 74 1a 	mov	0x1a74, r11
     bb0:	00 00 
     bb2:	3d 57 11 00 	ld.w	16[r29], r10
     bb6:	c2 52       	shl	2, r10
     bb8:	cb 51       	add	r11, r10
     bba:	2a 5f 01 00 	ld.w	0[r10], r11
     bbe:	3d 57 05 00 	ld.w	4[r29], r10
     bc2:	eb 57 20 02 	mul	r11, r10, r0
     bc6:	3d 5f 09 00 	ld.w	8[r29], r11
     bca:	8b 51       	subr	r11, r10
     bcc:	7d 57 09 00 	st.w	r10, 8[r29]
     bd0:	3d 57 11 00 	ld.w	16[r29], r10
     bd4:	5f 52       	add	-1, r10
     bd6:	7d 57 11 00 	st.w	r10, 16[r29]
     bda:	3d 57 11 00 	ld.w	16[r29], r10
     bde:	60 52       	cmp	0, r10
     be0:	fe b5       	bge	b4e <_get_lineno+0x50>
     be2:	2a 06 0c 74 	mov	0x6ff740c, r10
     be6:	ff 06 
     be8:	1d 18       	mov	r29, sp
     bea:	23 ef 15 00 	ld.w	20[sp], r29
     bee:	03 1e 18 00 	addi	24, sp, sp
     bf2:	7f 00       	jmp	[lp]

00000bf4 <_test_print_line>:
     bf4:	58 1a       	add	-8, sp
     bf6:	63 ff 05 00 	st.w	lp, 4[sp]
     bfa:	63 ef 01 00 	st.w	r29, 0[sp]
     bfe:	58 1a       	add	-8, sp
     c00:	03 e8       	mov	sp, r29
     c02:	7d 37 05 00 	st.w	r6, 4[r29]
     c06:	7d 3f 01 00 	st.w	r7, 0[r29]
     c0a:	3d 37 05 00 	ld.w	4[r29], r6
     c0e:	2a 06 a4 0a 	mov	0xaa4, r10
     c12:	00 00 
     c14:	80 ff 04 00 	jarl	c18 <_test_print_line+0x24>, lp
     c18:	44 fa       	add	4, lp
     c1a:	6a 00       	jmp	[r10]
     c1c:	3d 37 01 00 	ld.w	0[r29], r6
     c20:	2a 06 fe 0a 	mov	0xafe, r10
     c24:	00 00 
     c26:	80 ff 04 00 	jarl	c2a <_test_print_line+0x36>, lp
     c2a:	44 fa       	add	4, lp
     c2c:	6a 00       	jmp	[r10]
     c2e:	0a 30       	mov	r10, r6
     c30:	2a 06 a4 0a 	mov	0xaa4, r10
     c34:	00 00 
     c36:	80 ff 04 00 	jarl	c3a <_test_print_line+0x46>, lp
     c3a:	44 fa       	add	4, lp
     c3c:	6a 00       	jmp	[r10]
     c3e:	20 56 07 fa 	movea	-1529, r0, r10
     c42:	0a 5a       	mov	10, r11
     c44:	4a 5f 00 00 	st.b	r11, 0[r10]
     c48:	1d 18       	mov	r29, sp
     c4a:	23 ff 0d 00 	ld.w	12[sp], lp
     c4e:	23 ef 09 00 	ld.w	8[sp], r29
     c52:	03 1e 10 00 	addi	16, sp, sp
     c56:	7f 00       	jmp	[lp]

00000c58 <_list_private_init>:
     c58:	5c 1a       	add	-4, sp
     c5a:	63 ef 01 00 	st.w	r29, 0[sp]
     c5e:	5c 1a       	add	-4, sp
     c60:	03 e8       	mov	sp, r29
     c62:	2a 06 08 74 	mov	0x6ff7408, r10
     c66:	ff 06 
     c68:	2b 06 58 74 	mov	0x6ff7458, r11
     c6c:	ff 06 
     c6e:	6a 5f 01 00 	st.w	r11, 0[r10]
     c72:	7d 07 01 00 	st.w	r0, 0[r29]
     c76:	80 07 54 01 	jr	dca <_list_private_init+0x172>
     c7a:	3d 57 01 00 	ld.w	0[r29], r10
     c7e:	60 52       	cmp	0, r10
     c80:	9a 2d       	bne	cd2 <_list_private_init+0x7a>
     c82:	2a 06 08 74 	mov	0x6ff7408, r10
     c86:	ff 06 
     c88:	2a 5f 01 00 	ld.w	0[r10], r11
     c8c:	3d 57 01 00 	ld.w	0[r29], r10
     c90:	c4 52       	shl	4, r10
     c92:	cb 51       	add	r11, r10
     c94:	2b 06 08 74 	mov	0x6ff7408, r11
     c98:	ff 06 
     c9a:	2b 67 01 00 	ld.w	0[r11], r12
     c9e:	3d 5f 01 00 	ld.w	0[r29], r11
     ca2:	41 5a       	add	1, r11
     ca4:	c4 5a       	shl	4, r11
     ca6:	cc 59       	add	r12, r11
     ca8:	6a 5f 01 00 	st.w	r11, 0[r10]
     cac:	2a 06 08 74 	mov	0x6ff7408, r10
     cb0:	ff 06 
     cb2:	2a 5f 01 00 	ld.w	0[r10], r11
     cb6:	3d 57 01 00 	ld.w	0[r29], r10
     cba:	c4 52       	shl	4, r10
     cbc:	cb 51       	add	r11, r10
     cbe:	2b 06 08 74 	mov	0x6ff7408, r11
     cc2:	ff 06 
     cc4:	2b 5f 01 00 	ld.w	0[r11], r11
     cc8:	0b 5e 20 00 	addi	32, r11, r11
     ccc:	6a 5f 05 00 	st.w	r11, 4[r10]
     cd0:	b5 5d       	br	d86 <_list_private_init+0x12e>
     cd2:	3d 57 01 00 	ld.w	0[r29], r10
     cd6:	62 52       	cmp	2, r10
     cd8:	aa 2d       	bne	d2c <_list_private_init+0xd4>
     cda:	2a 06 08 74 	mov	0x6ff7408, r10
     cde:	ff 06 
     ce0:	2a 5f 01 00 	ld.w	0[r10], r11
     ce4:	3d 57 01 00 	ld.w	0[r29], r10
     ce8:	c4 52       	shl	4, r10
     cea:	cb 51       	add	r11, r10
     cec:	2b 06 08 74 	mov	0x6ff7408, r11
     cf0:	ff 06 
     cf2:	2b 5f 01 00 	ld.w	0[r11], r11
     cf6:	6a 5f 01 00 	st.w	r11, 0[r10]
     cfa:	2a 06 08 74 	mov	0x6ff7408, r10
     cfe:	ff 06 
     d00:	2a 5f 01 00 	ld.w	0[r10], r11
     d04:	3d 57 01 00 	ld.w	0[r29], r10
     d08:	c4 52       	shl	4, r10
     d0a:	cb 51       	add	r11, r10
     d0c:	2b 06 08 74 	mov	0x6ff7408, r11
     d10:	ff 06 
     d12:	2b 67 01 00 	ld.w	0[r11], r12
     d16:	3d 5f 01 00 	ld.w	0[r29], r11
     d1a:	2d 06 ff ff 	mov	0xfffffff, r13
     d1e:	ff 0f 
     d20:	cd 59       	add	r13, r11
     d22:	c4 5a       	shl	4, r11
     d24:	cc 59       	add	r12, r11
     d26:	6a 5f 05 00 	st.w	r11, 4[r10]
     d2a:	e5 2d       	br	d86 <_list_private_init+0x12e>
     d2c:	2a 06 08 74 	mov	0x6ff7408, r10
     d30:	ff 06 
     d32:	2a 5f 01 00 	ld.w	0[r10], r11
     d36:	3d 57 01 00 	ld.w	0[r29], r10
     d3a:	c4 52       	shl	4, r10
     d3c:	cb 51       	add	r11, r10
     d3e:	2b 06 08 74 	mov	0x6ff7408, r11
     d42:	ff 06 
     d44:	2b 67 01 00 	ld.w	0[r11], r12
     d48:	3d 5f 01 00 	ld.w	0[r29], r11
     d4c:	41 5a       	add	1, r11
     d4e:	c4 5a       	shl	4, r11
     d50:	cc 59       	add	r12, r11
     d52:	6a 5f 01 00 	st.w	r11, 0[r10]
     d56:	2a 06 08 74 	mov	0x6ff7408, r10
     d5a:	ff 06 
     d5c:	2a 5f 01 00 	ld.w	0[r10], r11
     d60:	3d 57 01 00 	ld.w	0[r29], r10
     d64:	c4 52       	shl	4, r10
     d66:	cb 51       	add	r11, r10
     d68:	2b 06 08 74 	mov	0x6ff7408, r11
     d6c:	ff 06 
     d6e:	2b 67 01 00 	ld.w	0[r11], r12
     d72:	3d 5f 01 00 	ld.w	0[r29], r11
     d76:	2d 06 ff ff 	mov	0xfffffff, r13
     d7a:	ff 0f 
     d7c:	cd 59       	add	r13, r11
     d7e:	c4 5a       	shl	4, r11
     d80:	cc 59       	add	r12, r11
     d82:	6a 5f 05 00 	st.w	r11, 4[r10]
     d86:	2a 06 08 74 	mov	0x6ff7408, r10
     d8a:	ff 06 
     d8c:	2a 5f 01 00 	ld.w	0[r10], r11
     d90:	3d 57 01 00 	ld.w	0[r29], r10
     d94:	c4 52       	shl	4, r10
     d96:	cb 51       	add	r11, r10
     d98:	3d 5f 01 00 	ld.w	0[r29], r11
     d9c:	c4 5a       	shl	4, r11
     d9e:	2c 06 24 74 	mov	0x6ff7424, r12
     da2:	ff 06 
     da4:	cc 59       	add	r12, r11
     da6:	6a 5f 09 00 	st.w	r11, 8[r10]
     daa:	2a 06 08 74 	mov	0x6ff7408, r10
     dae:	ff 06 
     db0:	2a 5f 01 00 	ld.w	0[r10], r11
     db4:	3d 57 01 00 	ld.w	0[r29], r10
     db8:	c4 52       	shl	4, r10
     dba:	cb 51       	add	r11, r10
     dbc:	6a 07 0d 00 	st.w	r0, 12[r10]
     dc0:	3d 57 01 00 	ld.w	0[r29], r10
     dc4:	41 52       	add	1, r10
     dc6:	7d 57 01 00 	st.w	r10, 0[r29]
     dca:	3d 57 01 00 	ld.w	0[r29], r10
     dce:	62 52       	cmp	2, r10
     dd0:	bf 05       	bgt	dd6 <_list_private_init+0x17e>
     dd2:	bf 07 a8 fe 	jr	c7a <_list_private_init+0x22>
     dd6:	2a 06 54 74 	mov	0x6ff7454, r10
     dda:	ff 06 
     ddc:	6a 07 01 00 	st.w	r0, 0[r10]
     de0:	1d 18       	mov	r29, sp
     de2:	23 ef 05 00 	ld.w	4[sp], r29
     de6:	48 1a       	add	8, sp
     de8:	7f 00       	jmp	[lp]

00000dea <_list_private_remove>:
     dea:	5c 1a       	add	-4, sp
     dec:	63 ef 01 00 	st.w	r29, 0[sp]
     df0:	03 1e ec ff 	addi	-20, sp, sp
     df4:	03 e8       	mov	sp, r29
     df6:	7d 37 05 00 	st.w	r6, 4[r29]
     dfa:	7d 3f 01 00 	st.w	r7, 0[r29]
     dfe:	3d 57 05 00 	ld.w	4[r29], r10
     e02:	2a 57 01 00 	ld.w	0[r10], r10
     e06:	60 52       	cmp	0, r10
     e08:	a2 45       	be	e8c <_list_private_remove+0xa2>
     e0a:	3d 57 01 00 	ld.w	0[r29], r10
     e0e:	7d 57 11 00 	st.w	r10, 16[r29]
     e12:	3d 57 11 00 	ld.w	16[r29], r10
     e16:	2a 57 01 00 	ld.w	0[r10], r10
     e1a:	7d 57 0d 00 	st.w	r10, 12[r29]
     e1e:	3d 57 11 00 	ld.w	16[r29], r10
     e22:	2a 57 05 00 	ld.w	4[r10], r10
     e26:	7d 57 09 00 	st.w	r10, 8[r29]
     e2a:	3d 57 09 00 	ld.w	8[r29], r10
     e2e:	3d 5f 0d 00 	ld.w	12[r29], r11
     e32:	6a 5f 01 00 	st.w	r11, 0[r10]
     e36:	3d 57 0d 00 	ld.w	12[r29], r10
     e3a:	3d 5f 09 00 	ld.w	8[r29], r11
     e3e:	6a 5f 05 00 	st.w	r11, 4[r10]
     e42:	3d 57 05 00 	ld.w	4[r29], r10
     e46:	2a 5f 01 00 	ld.w	0[r10], r11
     e4a:	3d 57 11 00 	ld.w	16[r29], r10
     e4e:	ea 59       	cmp	r10, r11
     e50:	aa 15       	bne	e74 <_list_private_remove+0x8a>
     e52:	3d 5f 11 00 	ld.w	16[r29], r11
     e56:	3d 57 0d 00 	ld.w	12[r29], r10
     e5a:	ea 59       	cmp	r10, r11
     e5c:	82 0d       	be	e6c <_list_private_remove+0x82>
     e5e:	3d 57 05 00 	ld.w	4[r29], r10
     e62:	3d 5f 0d 00 	ld.w	12[r29], r11
     e66:	6a 5f 01 00 	st.w	r11, 0[r10]
     e6a:	d5 05       	br	e74 <_list_private_remove+0x8a>
     e6c:	3d 57 05 00 	ld.w	4[r29], r10
     e70:	6a 07 01 00 	st.w	r0, 0[r10]
     e74:	3d 57 11 00 	ld.w	16[r29], r10
     e78:	3d 5f 11 00 	ld.w	16[r29], r11
     e7c:	6a 5f 01 00 	st.w	r11, 0[r10]
     e80:	3d 57 11 00 	ld.w	16[r29], r10
     e84:	3d 5f 11 00 	ld.w	16[r29], r11
     e88:	6a 5f 05 00 	st.w	r11, 4[r10]
     e8c:	00 00       	nop	
     e8e:	1d 18       	mov	r29, sp
     e90:	23 ef 15 00 	ld.w	20[sp], r29
     e94:	03 1e 18 00 	addi	24, sp, sp
     e98:	7f 00       	jmp	[lp]

00000e9a <_list_private_remove_head>:
     e9a:	58 1a       	add	-8, sp
     e9c:	63 ff 05 00 	st.w	lp, 4[sp]
     ea0:	63 ef 01 00 	st.w	r29, 0[sp]
     ea4:	58 1a       	add	-8, sp
     ea6:	03 e8       	mov	sp, r29
     ea8:	7d 37 01 00 	st.w	r6, 0[r29]
     eac:	3d 57 01 00 	ld.w	0[r29], r10
     eb0:	2a 57 01 00 	ld.w	0[r10], r10
     eb4:	7d 57 05 00 	st.w	r10, 4[r29]
     eb8:	3d 57 05 00 	ld.w	4[r29], r10
     ebc:	60 52       	cmp	0, r10
     ebe:	c2 0d       	be	ed6 <_list_private_remove_head+0x3c>
     ec0:	3d 37 01 00 	ld.w	0[r29], r6
     ec4:	3d 3f 05 00 	ld.w	4[r29], r7
     ec8:	2a 06 ea 0d 	mov	0xdea, r10
     ecc:	00 00 
     ece:	80 ff 04 00 	jarl	ed2 <_list_private_remove_head+0x38>, lp
     ed2:	44 fa       	add	4, lp
     ed4:	6a 00       	jmp	[r10]
     ed6:	3d 57 05 00 	ld.w	4[r29], r10
     eda:	1d 18       	mov	r29, sp
     edc:	23 ff 0d 00 	ld.w	12[sp], lp
     ee0:	23 ef 09 00 	ld.w	8[sp], r29
     ee4:	03 1e 10 00 	addi	16, sp, sp
     ee8:	7f 00       	jmp	[lp]

00000eea <_list_private_add_next>:
     eea:	5c 1a       	add	-4, sp
     eec:	63 ef 01 00 	st.w	r29, 0[sp]
     ef0:	54 1a       	add	-12, sp
     ef2:	03 e8       	mov	sp, r29
     ef4:	7d 37 09 00 	st.w	r6, 8[r29]
     ef8:	7d 3f 05 00 	st.w	r7, 4[r29]
     efc:	7d 47 01 00 	st.w	r8, 0[r29]
     f00:	3d 57 05 00 	ld.w	4[r29], r10
     f04:	2a 5f 01 00 	ld.w	0[r10], r11
     f08:	3d 57 01 00 	ld.w	0[r29], r10
     f0c:	6a 5f 01 00 	st.w	r11, 0[r10]
     f10:	3d 57 01 00 	ld.w	0[r29], r10
     f14:	3d 5f 05 00 	ld.w	4[r29], r11
     f18:	6a 5f 05 00 	st.w	r11, 4[r10]
     f1c:	3d 57 05 00 	ld.w	4[r29], r10
     f20:	2a 57 01 00 	ld.w	0[r10], r10
     f24:	3d 5f 01 00 	ld.w	0[r29], r11
     f28:	6a 5f 05 00 	st.w	r11, 4[r10]
     f2c:	3d 57 05 00 	ld.w	4[r29], r10
     f30:	3d 5f 01 00 	ld.w	0[r29], r11
     f34:	6a 5f 01 00 	st.w	r11, 0[r10]
     f38:	00 00       	nop	
     f3a:	1d 18       	mov	r29, sp
     f3c:	23 ef 0d 00 	ld.w	12[sp], r29
     f40:	03 1e 10 00 	addi	16, sp, sp
     f44:	7f 00       	jmp	[lp]

00000f46 <_list_private_add_prev>:
     f46:	5c 1a       	add	-4, sp
     f48:	63 ef 01 00 	st.w	r29, 0[sp]
     f4c:	54 1a       	add	-12, sp
     f4e:	03 e8       	mov	sp, r29
     f50:	7d 37 09 00 	st.w	r6, 8[r29]
     f54:	7d 3f 05 00 	st.w	r7, 4[r29]
     f58:	7d 47 01 00 	st.w	r8, 0[r29]
     f5c:	3d 57 01 00 	ld.w	0[r29], r10
     f60:	3d 5f 05 00 	ld.w	4[r29], r11
     f64:	6a 5f 01 00 	st.w	r11, 0[r10]
     f68:	3d 57 05 00 	ld.w	4[r29], r10
     f6c:	2a 5f 05 00 	ld.w	4[r10], r11
     f70:	3d 57 01 00 	ld.w	0[r29], r10
     f74:	6a 5f 05 00 	st.w	r11, 4[r10]
     f78:	3d 57 05 00 	ld.w	4[r29], r10
     f7c:	2a 57 05 00 	ld.w	4[r10], r10
     f80:	3d 5f 01 00 	ld.w	0[r29], r11
     f84:	6a 5f 01 00 	st.w	r11, 0[r10]
     f88:	3d 57 05 00 	ld.w	4[r29], r10
     f8c:	3d 5f 01 00 	ld.w	0[r29], r11
     f90:	6a 5f 05 00 	st.w	r11, 4[r10]
     f94:	00 00       	nop	
     f96:	1d 18       	mov	r29, sp
     f98:	23 ef 0d 00 	ld.w	12[sp], r29
     f9c:	03 1e 10 00 	addi	16, sp, sp
     fa0:	7f 00       	jmp	[lp]

00000fa2 <_list_private_add_head>:
     fa2:	58 1a       	add	-8, sp
     fa4:	63 ff 05 00 	st.w	lp, 4[sp]
     fa8:	63 ef 01 00 	st.w	r29, 0[sp]
     fac:	58 1a       	add	-8, sp
     fae:	03 e8       	mov	sp, r29
     fb0:	7d 37 05 00 	st.w	r6, 4[r29]
     fb4:	7d 3f 01 00 	st.w	r7, 0[r29]
     fb8:	3d 57 01 00 	ld.w	0[r29], r10
     fbc:	2a 5f 01 00 	ld.w	0[r10], r11
     fc0:	3d 57 01 00 	ld.w	0[r29], r10
     fc4:	ea 59       	cmp	r10, r11
     fc6:	ea 0d       	bne	fe2 <_list_private_add_head+0x40>
     fc8:	26 06 88 1a 	mov	0x1a88, r6
     fcc:	00 00 
     fce:	20 3e 87 00 	movea	135, r0, r7
     fd2:	2a 06 f4 0b 	mov	0xbf4, r10
     fd6:	00 00 
     fd8:	80 ff 04 00 	jarl	fdc <_list_private_add_head+0x3a>, lp
     fdc:	44 fa       	add	4, lp
     fde:	6a 00       	jmp	[r10]
     fe0:	d5 0d       	br	ffa <_list_private_add_head+0x58>
     fe2:	26 06 bf 1a 	mov	0x1abf, r6
     fe6:	00 00 
     fe8:	20 3e 87 00 	movea	135, r0, r7
     fec:	2a 06 f4 0b 	mov	0xbf4, r10
     ff0:	00 00 
     ff2:	80 ff 04 00 	jarl	ff6 <_list_private_add_head+0x54>, lp
     ff6:	44 fa       	add	4, lp
     ff8:	6a 00       	jmp	[r10]
     ffa:	3d 57 01 00 	ld.w	0[r29], r10
     ffe:	2a 5f 05 00 	ld.w	4[r10], r11
    1002:	3d 57 01 00 	ld.w	0[r29], r10
    1006:	ea 59       	cmp	r10, r11
    1008:	ea 0d       	bne	1024 <_list_private_add_head+0x82>
    100a:	26 06 f6 1a 	mov	0x1af6, r6
    100e:	00 00 
    1010:	20 3e 88 00 	movea	136, r0, r7
    1014:	2a 06 f4 0b 	mov	0xbf4, r10
    1018:	00 00 
    101a:	80 ff 04 00 	jarl	101e <_list_private_add_head+0x7c>, lp
    101e:	44 fa       	add	4, lp
    1020:	6a 00       	jmp	[r10]
    1022:	d5 0d       	br	103c <_list_private_add_head+0x9a>
    1024:	26 06 2d 1b 	mov	0x1b2d, r6
    1028:	00 00 
    102a:	20 3e 88 00 	movea	136, r0, r7
    102e:	2a 06 f4 0b 	mov	0xbf4, r10
    1032:	00 00 
    1034:	80 ff 04 00 	jarl	1038 <_list_private_add_head+0x96>, lp
    1038:	44 fa       	add	4, lp
    103a:	6a 00       	jmp	[r10]
    103c:	3d 57 05 00 	ld.w	4[r29], r10
    1040:	2a 57 01 00 	ld.w	0[r10], r10
    1044:	60 52       	cmp	0, r10
    1046:	92 15       	be	1068 <_list_private_add_head+0xc6>
    1048:	3d 57 05 00 	ld.w	4[r29], r10
    104c:	2a 57 01 00 	ld.w	0[r10], r10
    1050:	3d 37 05 00 	ld.w	4[r29], r6
    1054:	0a 38       	mov	r10, r7
    1056:	3d 47 01 00 	ld.w	0[r29], r8
    105a:	2a 06 46 0f 	mov	0xf46, r10
    105e:	00 00 
    1060:	80 ff 04 00 	jarl	1064 <_list_private_add_head+0xc2>, lp
    1064:	44 fa       	add	4, lp
    1066:	6a 00       	jmp	[r10]
    1068:	3d 57 05 00 	ld.w	4[r29], r10
    106c:	3d 5f 01 00 	ld.w	0[r29], r11
    1070:	6a 5f 01 00 	st.w	r11, 0[r10]
    1074:	00 00       	nop	
    1076:	1d 18       	mov	r29, sp
    1078:	23 ff 0d 00 	ld.w	12[sp], lp
    107c:	23 ef 09 00 	ld.w	8[sp], r29
    1080:	03 1e 10 00 	addi	16, sp, sp
    1084:	7f 00       	jmp	[lp]

00001086 <_list_private_add_tail>:
    1086:	58 1a       	add	-8, sp
    1088:	63 ff 05 00 	st.w	lp, 4[sp]
    108c:	63 ef 01 00 	st.w	r29, 0[sp]
    1090:	58 1a       	add	-8, sp
    1092:	03 e8       	mov	sp, r29
    1094:	7d 37 05 00 	st.w	r6, 4[r29]
    1098:	7d 3f 01 00 	st.w	r7, 0[r29]
    109c:	3d 57 01 00 	ld.w	0[r29], r10
    10a0:	2a 5f 01 00 	ld.w	0[r10], r11
    10a4:	3d 57 01 00 	ld.w	0[r29], r10
    10a8:	ea 59       	cmp	r10, r11
    10aa:	ea 0d       	bne	10c6 <_list_private_add_tail+0x40>
    10ac:	26 06 88 1a 	mov	0x1a88, r6
    10b0:	00 00 
    10b2:	20 3e 99 00 	movea	153, r0, r7
    10b6:	2a 06 f4 0b 	mov	0xbf4, r10
    10ba:	00 00 
    10bc:	80 ff 04 00 	jarl	10c0 <_list_private_add_tail+0x3a>, lp
    10c0:	44 fa       	add	4, lp
    10c2:	6a 00       	jmp	[r10]
    10c4:	d5 0d       	br	10de <_list_private_add_tail+0x58>
    10c6:	26 06 bf 1a 	mov	0x1abf, r6
    10ca:	00 00 
    10cc:	20 3e 99 00 	movea	153, r0, r7
    10d0:	2a 06 f4 0b 	mov	0xbf4, r10
    10d4:	00 00 
    10d6:	80 ff 04 00 	jarl	10da <_list_private_add_tail+0x54>, lp
    10da:	44 fa       	add	4, lp
    10dc:	6a 00       	jmp	[r10]
    10de:	3d 57 01 00 	ld.w	0[r29], r10
    10e2:	2a 5f 05 00 	ld.w	4[r10], r11
    10e6:	3d 57 01 00 	ld.w	0[r29], r10
    10ea:	ea 59       	cmp	r10, r11
    10ec:	ea 0d       	bne	1108 <_list_private_add_tail+0x82>
    10ee:	26 06 f6 1a 	mov	0x1af6, r6
    10f2:	00 00 
    10f4:	20 3e 9a 00 	movea	154, r0, r7
    10f8:	2a 06 f4 0b 	mov	0xbf4, r10
    10fc:	00 00 
    10fe:	80 ff 04 00 	jarl	1102 <_list_private_add_tail+0x7c>, lp
    1102:	44 fa       	add	4, lp
    1104:	6a 00       	jmp	[r10]
    1106:	d5 0d       	br	1120 <_list_private_add_tail+0x9a>
    1108:	26 06 2d 1b 	mov	0x1b2d, r6
    110c:	00 00 
    110e:	20 3e 9a 00 	movea	154, r0, r7
    1112:	2a 06 f4 0b 	mov	0xbf4, r10
    1116:	00 00 
    1118:	80 ff 04 00 	jarl	111c <_list_private_add_tail+0x96>, lp
    111c:	44 fa       	add	4, lp
    111e:	6a 00       	jmp	[r10]
    1120:	3d 57 05 00 	ld.w	4[r29], r10
    1124:	2a 57 01 00 	ld.w	0[r10], r10
    1128:	60 52       	cmp	0, r10
    112a:	a2 15       	be	114e <_list_private_add_tail+0xc8>
    112c:	3d 57 05 00 	ld.w	4[r29], r10
    1130:	2a 57 01 00 	ld.w	0[r10], r10
    1134:	3d 37 05 00 	ld.w	4[r29], r6
    1138:	0a 38       	mov	r10, r7
    113a:	3d 47 01 00 	ld.w	0[r29], r8
    113e:	2a 06 46 0f 	mov	0xf46, r10
    1142:	00 00 
    1144:	80 ff 04 00 	jarl	1148 <_list_private_add_tail+0xc2>, lp
    1148:	44 fa       	add	4, lp
    114a:	6a 00       	jmp	[r10]
    114c:	f5 05       	br	115a <_list_private_add_tail+0xd4>
    114e:	3d 57 05 00 	ld.w	4[r29], r10
    1152:	3d 5f 01 00 	ld.w	0[r29], r11
    1156:	6a 5f 01 00 	st.w	r11, 0[r10]
    115a:	00 00       	nop	
    115c:	1d 18       	mov	r29, sp
    115e:	23 ff 0d 00 	ld.w	12[sp], lp
    1162:	23 ef 09 00 	ld.w	8[sp], r29
    1166:	03 1e 10 00 	addi	16, sp, sp
    116a:	7f 00       	jmp	[lp]

0000116c <_GetlistEntry>:
    116c:	5c 1a       	add	-4, sp
    116e:	63 ef 01 00 	st.w	r29, 0[sp]
    1172:	03 1e e8 ff 	addi	-24, sp, sp
    1176:	03 e8       	mov	sp, r29
    1178:	7d 37 01 00 	st.w	r6, 0[r29]
    117c:	2a 06 24 74 	mov	0x6ff7424, r10
    1180:	ff 06 
    1182:	7d 57 15 00 	st.w	r10, 20[r29]
    1186:	2a 06 53 74 	mov	0x6ff7453, r10
    118a:	ff 06 
    118c:	7d 57 11 00 	st.w	r10, 16[r29]
    1190:	3d 5f 01 00 	ld.w	0[r29], r11
    1194:	3d 57 15 00 	ld.w	20[r29], r10
    1198:	ea 59       	cmp	r10, r11
    119a:	d1 45       	bl	1224 <_GetlistEntry+0xb8>
    119c:	3d 5f 01 00 	ld.w	0[r29], r11
    11a0:	3d 57 11 00 	ld.w	16[r29], r10
    11a4:	ea 59       	cmp	r10, r11
    11a6:	fb 3d       	bh	1224 <_GetlistEntry+0xb8>
    11a8:	3d 5f 01 00 	ld.w	0[r29], r11
    11ac:	3d 57 15 00 	ld.w	20[r29], r10
    11b0:	8b 51       	subr	r11, r10
    11b2:	7d 57 0d 00 	st.w	r10, 12[r29]
    11b6:	3d 57 0d 00 	ld.w	12[r29], r10
    11ba:	84 52       	shr	4, r10
    11bc:	7d 57 09 00 	st.w	r10, 8[r29]
    11c0:	3d 57 0d 00 	ld.w	12[r29], r10
    11c4:	ca 56 0f 00 	andi	15, r10, r10
    11c8:	7d 57 05 00 	st.w	r10, 4[r29]
    11cc:	3d 57 05 00 	ld.w	4[r29], r10
    11d0:	6f 52       	cmp	15, r10
    11d2:	fb 25       	bh	1220 <_GetlistEntry+0xb4>
    11d4:	3d 57 09 00 	ld.w	8[r29], r10
    11d8:	60 52       	cmp	0, r10
    11da:	9a 0d       	bne	11ec <_GetlistEntry+0x80>
    11dc:	3d 57 05 00 	ld.w	4[r29], r10
    11e0:	6f 52       	cmp	15, r10
    11e2:	db 05       	bh	11ec <_GetlistEntry+0x80>
    11e4:	2a 06 58 74 	mov	0x6ff7458, r10
    11e8:	ff 06 
    11ea:	e5 1d       	br	1226 <_GetlistEntry+0xba>
    11ec:	3d 57 09 00 	ld.w	8[r29], r10
    11f0:	61 52       	cmp	1, r10
    11f2:	9a 0d       	bne	1204 <_GetlistEntry+0x98>
    11f4:	3d 57 05 00 	ld.w	4[r29], r10
    11f8:	6f 52       	cmp	15, r10
    11fa:	db 05       	bh	1204 <_GetlistEntry+0x98>
    11fc:	2a 06 68 74 	mov	0x6ff7468, r10
    1200:	ff 06 
    1202:	a5 15       	br	1226 <_GetlistEntry+0xba>
    1204:	3d 57 09 00 	ld.w	8[r29], r10
    1208:	62 52       	cmp	2, r10
    120a:	9a 0d       	bne	121c <_GetlistEntry+0xb0>
    120c:	3d 57 05 00 	ld.w	4[r29], r10
    1210:	6f 52       	cmp	15, r10
    1212:	db 05       	bh	121c <_GetlistEntry+0xb0>
    1214:	2a 06 78 74 	mov	0x6ff7478, r10
    1218:	ff 06 
    121a:	e5 05       	br	1226 <_GetlistEntry+0xba>
    121c:	00 52       	mov	0, r10
    121e:	c5 05       	br	1226 <_GetlistEntry+0xba>
    1220:	00 52       	mov	0, r10
    1222:	a5 05       	br	1226 <_GetlistEntry+0xba>
    1224:	00 52       	mov	0, r10
    1226:	1d 18       	mov	r29, sp
    1228:	23 ef 19 00 	ld.w	24[sp], r29
    122c:	03 1e 1c 00 	addi	28, sp, sp
    1230:	7f 00       	jmp	[lp]

00001232 <_test_print>:
    1232:	5c 1a       	add	-4, sp
    1234:	63 ef 01 00 	st.w	r29, 0[sp]
    1238:	58 1a       	add	-8, sp
    123a:	03 e8       	mov	sp, r29
    123c:	7d 37 01 00 	st.w	r6, 0[r29]
    1240:	7d 07 05 00 	st.w	r0, 4[r29]
    1244:	c5 15       	br	126c <_test_print+0x3a>
    1246:	20 56 07 fa 	movea	-1529, r0, r10
    124a:	3d 5f 05 00 	ld.w	4[r29], r11
    124e:	3d 67 01 00 	ld.w	0[r29], r12
    1252:	cc 59       	add	r12, r11
    1254:	0b 5f 00 00 	ld.b	0[r11], r11
    1258:	d8 5a       	shl	24, r11
    125a:	b8 5a       	sar	24, r11
    125c:	8b 00       	zxb	r11
    125e:	4a 5f 00 00 	st.b	r11, 0[r10]
    1262:	3d 57 05 00 	ld.w	4[r29], r10
    1266:	41 52       	add	1, r10
    1268:	7d 57 05 00 	st.w	r10, 4[r29]
    126c:	3d 57 05 00 	ld.w	4[r29], r10
    1270:	3d 5f 01 00 	ld.w	0[r29], r11
    1274:	cb 51       	add	r11, r10
    1276:	0a 57 00 00 	ld.b	0[r10], r10
    127a:	d8 52       	shl	24, r10
    127c:	b8 52       	sar	24, r10
    127e:	60 52       	cmp	0, r10
    1280:	ba e5       	bne	1246 <_test_print+0x14>
    1282:	1d 18       	mov	r29, sp
    1284:	23 ef 09 00 	ld.w	8[sp], r29
    1288:	4c 1a       	add	12, sp
    128a:	7f 00       	jmp	[lp]

0000128c <_get_lineno>:
    128c:	5c 1a       	add	-4, sp
    128e:	63 ef 01 00 	st.w	r29, 0[sp]
    1292:	03 1e ec ff 	addi	-20, sp, sp
    1296:	03 e8       	mov	sp, r29
    1298:	7d 37 01 00 	st.w	r6, 0[r29]
    129c:	7d 07 0d 00 	st.w	r0, 12[r29]
    12a0:	3d 57 01 00 	ld.w	0[r29], r10
    12a4:	7d 57 09 00 	st.w	r10, 8[r29]
    12a8:	7d 07 0d 00 	st.w	r0, 12[r29]
    12ac:	e5 0d       	br	12c8 <_get_lineno+0x3c>
    12ae:	2b 06 14 74 	mov	0x6ff7414, r11
    12b2:	ff 06 
    12b4:	3d 57 0d 00 	ld.w	12[r29], r10
    12b8:	cb 51       	add	r11, r10
    12ba:	4a 07 00 00 	st.b	r0, 0[r10]
    12be:	3d 57 0d 00 	ld.w	12[r29], r10
    12c2:	41 52       	add	1, r10
    12c4:	7d 57 0d 00 	st.w	r10, 12[r29]
    12c8:	3d 57 0d 00 	ld.w	12[r29], r10
    12cc:	67 52       	cmp	7, r10
    12ce:	87 f5       	ble	12ae <_get_lineno+0x22>
    12d0:	7d 07 0d 00 	st.w	r0, 12[r29]
    12d4:	04 52       	mov	4, r10
    12d6:	7d 57 11 00 	st.w	r10, 16[r29]
    12da:	f5 45       	br	1368 <_get_lineno+0xdc>
    12dc:	2b 06 64 1b 	mov	0x1b64, r11
    12e0:	00 00 
    12e2:	3d 57 11 00 	ld.w	16[r29], r10
    12e6:	c2 52       	shl	2, r10
    12e8:	cb 51       	add	r11, r10
    12ea:	2a 57 01 00 	ld.w	0[r10], r10
    12ee:	3d 5f 09 00 	ld.w	8[r29], r11
    12f2:	0b 60       	mov	r11, r12
    12f4:	ea 67 fc 5a 	divq	r10, r12, r11
    12f8:	0c 50       	mov	r12, r10
    12fa:	7d 57 05 00 	st.w	r10, 4[r29]
    12fe:	3d 57 0d 00 	ld.w	12[r29], r10
    1302:	60 52       	cmp	0, r10
    1304:	df 05       	bgt	130e <_get_lineno+0x82>
    1306:	3d 57 05 00 	ld.w	4[r29], r10
    130a:	60 52       	cmp	0, r10
    130c:	f7 15       	ble	133a <_get_lineno+0xae>
    130e:	3d 57 05 00 	ld.w	4[r29], r10
    1312:	8a 00       	zxb	r10
    1314:	0a 56 30 00 	addi	48, r10, r10
    1318:	8a 00       	zxb	r10
    131a:	d8 52       	shl	24, r10
    131c:	0a 60       	mov	r10, r12
    131e:	b8 62       	sar	24, r12
    1320:	2b 06 14 74 	mov	0x6ff7414, r11
    1324:	ff 06 
    1326:	3d 57 0d 00 	ld.w	12[r29], r10
    132a:	cb 51       	add	r11, r10
    132c:	4a 67 00 00 	st.b	r12, 0[r10]
    1330:	3d 57 0d 00 	ld.w	12[r29], r10
    1334:	41 52       	add	1, r10
    1336:	7d 57 0d 00 	st.w	r10, 12[r29]
    133a:	2b 06 64 1b 	mov	0x1b64, r11
    133e:	00 00 
    1340:	3d 57 11 00 	ld.w	16[r29], r10
    1344:	c2 52       	shl	2, r10
    1346:	cb 51       	add	r11, r10
    1348:	2a 5f 01 00 	ld.w	0[r10], r11
    134c:	3d 57 05 00 	ld.w	4[r29], r10
    1350:	eb 57 20 02 	mul	r11, r10, r0
    1354:	3d 5f 09 00 	ld.w	8[r29], r11
    1358:	8b 51       	subr	r11, r10
    135a:	7d 57 09 00 	st.w	r10, 8[r29]
    135e:	3d 57 11 00 	ld.w	16[r29], r10
    1362:	5f 52       	add	-1, r10
    1364:	7d 57 11 00 	st.w	r10, 16[r29]
    1368:	3d 57 11 00 	ld.w	16[r29], r10
    136c:	60 52       	cmp	0, r10
    136e:	fe b5       	bge	12dc <_get_lineno+0x50>
    1370:	2a 06 14 74 	mov	0x6ff7414, r10
    1374:	ff 06 
    1376:	1d 18       	mov	r29, sp
    1378:	23 ef 15 00 	ld.w	20[sp], r29
    137c:	03 1e 18 00 	addi	24, sp, sp
    1380:	7f 00       	jmp	[lp]

00001382 <_test_print_line>:
    1382:	58 1a       	add	-8, sp
    1384:	63 ff 05 00 	st.w	lp, 4[sp]
    1388:	63 ef 01 00 	st.w	r29, 0[sp]
    138c:	58 1a       	add	-8, sp
    138e:	03 e8       	mov	sp, r29
    1390:	7d 37 05 00 	st.w	r6, 4[r29]
    1394:	7d 3f 01 00 	st.w	r7, 0[r29]
    1398:	3d 37 05 00 	ld.w	4[r29], r6
    139c:	2a 06 32 12 	mov	0x1232, r10
    13a0:	00 00 
    13a2:	80 ff 04 00 	jarl	13a6 <_test_print_line+0x24>, lp
    13a6:	44 fa       	add	4, lp
    13a8:	6a 00       	jmp	[r10]
    13aa:	3d 37 01 00 	ld.w	0[r29], r6
    13ae:	2a 06 8c 12 	mov	0x128c, r10
    13b2:	00 00 
    13b4:	80 ff 04 00 	jarl	13b8 <_test_print_line+0x36>, lp
    13b8:	44 fa       	add	4, lp
    13ba:	6a 00       	jmp	[r10]
    13bc:	0a 30       	mov	r10, r6
    13be:	2a 06 32 12 	mov	0x1232, r10
    13c2:	00 00 
    13c4:	80 ff 04 00 	jarl	13c8 <_test_print_line+0x46>, lp
    13c8:	44 fa       	add	4, lp
    13ca:	6a 00       	jmp	[r10]
    13cc:	20 56 07 fa 	movea	-1529, r0, r10
    13d0:	0a 5a       	mov	10, r11
    13d2:	4a 5f 00 00 	st.b	r11, 0[r10]
    13d6:	1d 18       	mov	r29, sp
    13d8:	23 ff 0d 00 	ld.w	12[sp], lp
    13dc:	23 ef 09 00 	ld.w	8[sp], r29
    13e0:	03 1e 10 00 	addi	16, sp, sp
    13e4:	7f 00       	jmp	[lp]

000013e6 <_list_test_ERR_1>:
    13e6:	58 1a       	add	-8, sp
    13e8:	63 ff 05 00 	st.w	lp, 4[sp]
    13ec:	63 ef 01 00 	st.w	r29, 0[sp]
    13f0:	58 1a       	add	-8, sp
    13f2:	03 e8       	mov	sp, r29
    13f4:	2a 06 a8 09 	mov	0x9a8, r10
    13f8:	00 00 
    13fa:	80 ff 04 00 	jarl	13fe <_list_test_ERR_1+0x18>, lp
    13fe:	44 fa       	add	4, lp
    1400:	6a 00       	jmp	[r10]
    1402:	7d 57 05 00 	st.w	r10, 4[r29]
    1406:	3d 37 05 00 	ld.w	4[r29], r6
    140a:	2a 06 1a 0a 	mov	0xa1a, r10
    140e:	00 00 
    1410:	80 ff 04 00 	jarl	1414 <_list_test_ERR_1+0x2e>, lp
    1414:	44 fa       	add	4, lp
    1416:	6a 00       	jmp	[r10]
    1418:	7d 57 01 00 	st.w	r10, 0[r29]
    141c:	3d 57 05 00 	ld.w	4[r29], r10
    1420:	60 52       	cmp	0, r10
    1422:	da 0d       	bne	143c <_list_test_ERR_1+0x56>
    1424:	26 06 78 1b 	mov	0x1b78, r6
    1428:	00 00 
    142a:	0b 3a       	mov	11, r7
    142c:	2a 06 82 13 	mov	0x1382, r10
    1430:	00 00 
    1432:	80 ff 04 00 	jarl	1436 <_list_test_ERR_1+0x50>, lp
    1436:	44 fa       	add	4, lp
    1438:	6a 00       	jmp	[r10]
    143a:	c5 0d       	br	1452 <_list_test_ERR_1+0x6c>
    143c:	26 06 a6 1b 	mov	0x1ba6, r6
    1440:	00 00 
    1442:	0b 3a       	mov	11, r7
    1444:	2a 06 82 13 	mov	0x1382, r10
    1448:	00 00 
    144a:	80 ff 04 00 	jarl	144e <_list_test_ERR_1+0x68>, lp
    144e:	44 fa       	add	4, lp
    1450:	6a 00       	jmp	[r10]
    1452:	3d 57 01 00 	ld.w	0[r29], r10
    1456:	7f 52       	cmp	-1, r10
    1458:	da 0d       	bne	1472 <_list_test_ERR_1+0x8c>
    145a:	26 06 d4 1b 	mov	0x1bd4, r6
    145e:	00 00 
    1460:	0c 3a       	mov	12, r7
    1462:	2a 06 82 13 	mov	0x1382, r10
    1466:	00 00 
    1468:	80 ff 04 00 	jarl	146c <_list_test_ERR_1+0x86>, lp
    146c:	44 fa       	add	4, lp
    146e:	6a 00       	jmp	[r10]
    1470:	c5 0d       	br	1488 <_list_test_ERR_1+0xa2>
    1472:	26 06 fb 1b 	mov	0x1bfb, r6
    1476:	00 00 
    1478:	0c 3a       	mov	12, r7
    147a:	2a 06 82 13 	mov	0x1382, r10
    147e:	00 00 
    1480:	80 ff 04 00 	jarl	1484 <_list_test_ERR_1+0x9e>, lp
    1484:	44 fa       	add	4, lp
    1486:	6a 00       	jmp	[r10]
    1488:	00 00       	nop	
    148a:	1d 18       	mov	r29, sp
    148c:	23 ff 0d 00 	ld.w	12[sp], lp
    1490:	23 ef 09 00 	ld.w	8[sp], r29
    1494:	03 1e 10 00 	addi	16, sp, sp
    1498:	7f 00       	jmp	[lp]

0000149a <_list_test_ERR_2>:
    149a:	58 1a       	add	-8, sp
    149c:	63 ff 05 00 	st.w	lp, 4[sp]
    14a0:	63 ef 01 00 	st.w	r29, 0[sp]
    14a4:	58 1a       	add	-8, sp
    14a6:	03 e8       	mov	sp, r29
    14a8:	1d 50       	mov	r29, r10
    14aa:	7d 57 05 00 	st.w	r10, 4[r29]
    14ae:	3d 37 05 00 	ld.w	4[r29], r6
    14b2:	2a 06 1a 0a 	mov	0xa1a, r10
    14b6:	00 00 
    14b8:	80 ff 04 00 	jarl	14bc <_list_test_ERR_2+0x22>, lp
    14bc:	44 fa       	add	4, lp
    14be:	6a 00       	jmp	[r10]
    14c0:	7d 57 01 00 	st.w	r10, 0[r29]
    14c4:	3d 57 01 00 	ld.w	0[r29], r10
    14c8:	7f 52       	cmp	-1, r10
    14ca:	ea 0d       	bne	14e6 <_list_test_ERR_2+0x4c>
    14cc:	26 06 d4 1b 	mov	0x1bd4, r6
    14d0:	00 00 
    14d2:	20 3e 17 00 	movea	23, r0, r7
    14d6:	2a 06 82 13 	mov	0x1382, r10
    14da:	00 00 
    14dc:	80 ff 04 00 	jarl	14e0 <_list_test_ERR_2+0x46>, lp
    14e0:	44 fa       	add	4, lp
    14e2:	6a 00       	jmp	[r10]
    14e4:	d5 0d       	br	14fe <_list_test_ERR_2+0x64>
    14e6:	26 06 fb 1b 	mov	0x1bfb, r6
    14ea:	00 00 
    14ec:	20 3e 17 00 	movea	23, r0, r7
    14f0:	2a 06 82 13 	mov	0x1382, r10
    14f4:	00 00 
    14f6:	80 ff 04 00 	jarl	14fa <_list_test_ERR_2+0x60>, lp
    14fa:	44 fa       	add	4, lp
    14fc:	6a 00       	jmp	[r10]
    14fe:	00 00       	nop	
    1500:	1d 18       	mov	r29, sp
    1502:	23 ff 0d 00 	ld.w	12[sp], lp
    1506:	23 ef 09 00 	ld.w	8[sp], r29
    150a:	03 1e 10 00 	addi	16, sp, sp
    150e:	7f 00       	jmp	[lp]

00001510 <_list_test_ERR_3>:
    1510:	58 1a       	add	-8, sp
    1512:	63 ff 05 00 	st.w	lp, 4[sp]
    1516:	63 ef 01 00 	st.w	r29, 0[sp]
    151a:	58 1a       	add	-8, sp
    151c:	03 e8       	mov	sp, r29
    151e:	2a 06 80 09 	mov	0x980, r10
    1522:	00 00 
    1524:	80 ff 04 00 	jarl	1528 <_list_test_ERR_3+0x18>, lp
    1528:	44 fa       	add	4, lp
    152a:	6a 00       	jmp	[r10]
    152c:	2a 06 a8 09 	mov	0x9a8, r10
    1530:	00 00 
    1532:	80 ff 04 00 	jarl	1536 <_list_test_ERR_3+0x26>, lp
    1536:	44 fa       	add	4, lp
    1538:	6a 00       	jmp	[r10]
    153a:	7d 57 05 00 	st.w	r10, 4[r29]
    153e:	3d 57 05 00 	ld.w	4[r29], r10
    1542:	60 52       	cmp	0, r10
    1544:	e2 0d       	be	1560 <_list_test_ERR_3+0x50>
    1546:	26 06 22 1c 	mov	0x1c22, r6
    154a:	00 00 
    154c:	20 3e 22 00 	movea	34, r0, r7
    1550:	2a 06 82 13 	mov	0x1382, r10
    1554:	00 00 
    1556:	80 ff 04 00 	jarl	155a <_list_test_ERR_3+0x4a>, lp
    155a:	44 fa       	add	4, lp
    155c:	6a 00       	jmp	[r10]
    155e:	d5 0d       	br	1578 <_list_test_ERR_3+0x68>
    1560:	26 06 50 1c 	mov	0x1c50, r6
    1564:	00 00 
    1566:	20 3e 22 00 	movea	34, r0, r7
    156a:	2a 06 82 13 	mov	0x1382, r10
    156e:	00 00 
    1570:	80 ff 04 00 	jarl	1574 <_list_test_ERR_3+0x64>, lp
    1574:	44 fa       	add	4, lp
    1576:	6a 00       	jmp	[r10]
    1578:	3d 57 05 00 	ld.w	4[r29], r10
    157c:	41 52       	add	1, r10
    157e:	0a 30       	mov	r10, r6
    1580:	2a 06 1a 0a 	mov	0xa1a, r10
    1584:	00 00 
    1586:	80 ff 04 00 	jarl	158a <_list_test_ERR_3+0x7a>, lp
    158a:	44 fa       	add	4, lp
    158c:	6a 00       	jmp	[r10]
    158e:	7d 57 01 00 	st.w	r10, 0[r29]
    1592:	3d 57 01 00 	ld.w	0[r29], r10
    1596:	7f 52       	cmp	-1, r10
    1598:	ea 0d       	bne	15b4 <_list_test_ERR_3+0xa4>
    159a:	26 06 d4 1b 	mov	0x1bd4, r6
    159e:	00 00 
    15a0:	20 3e 25 00 	movea	37, r0, r7
    15a4:	2a 06 82 13 	mov	0x1382, r10
    15a8:	00 00 
    15aa:	80 ff 04 00 	jarl	15ae <_list_test_ERR_3+0x9e>, lp
    15ae:	44 fa       	add	4, lp
    15b0:	6a 00       	jmp	[r10]
    15b2:	d5 0d       	br	15cc <_list_test_ERR_3+0xbc>
    15b4:	26 06 fb 1b 	mov	0x1bfb, r6
    15b8:	00 00 
    15ba:	20 3e 25 00 	movea	37, r0, r7
    15be:	2a 06 82 13 	mov	0x1382, r10
    15c2:	00 00 
    15c4:	80 ff 04 00 	jarl	15c8 <_list_test_ERR_3+0xb8>, lp
    15c8:	44 fa       	add	4, lp
    15ca:	6a 00       	jmp	[r10]
    15cc:	3d 57 05 00 	ld.w	4[r29], r10
    15d0:	0a 56 00 fc 	addi	-1024, r10, r10
    15d4:	0a 30       	mov	r10, r6
    15d6:	2a 06 1a 0a 	mov	0xa1a, r10
    15da:	00 00 
    15dc:	80 ff 04 00 	jarl	15e0 <_list_test_ERR_3+0xd0>, lp
    15e0:	44 fa       	add	4, lp
    15e2:	6a 00       	jmp	[r10]
    15e4:	7d 57 01 00 	st.w	r10, 0[r29]
    15e8:	3d 57 01 00 	ld.w	0[r29], r10
    15ec:	7f 52       	cmp	-1, r10
    15ee:	ea 0d       	bne	160a <_list_test_ERR_3+0xfa>
    15f0:	26 06 d4 1b 	mov	0x1bd4, r6
    15f4:	00 00 
    15f6:	20 3e 28 00 	movea	40, r0, r7
    15fa:	2a 06 82 13 	mov	0x1382, r10
    15fe:	00 00 
    1600:	80 ff 04 00 	jarl	1604 <_list_test_ERR_3+0xf4>, lp
    1604:	44 fa       	add	4, lp
    1606:	6a 00       	jmp	[r10]
    1608:	d5 0d       	br	1622 <_list_test_ERR_3+0x112>
    160a:	26 06 fb 1b 	mov	0x1bfb, r6
    160e:	00 00 
    1610:	20 3e 28 00 	movea	40, r0, r7
    1614:	2a 06 82 13 	mov	0x1382, r10
    1618:	00 00 
    161a:	80 ff 04 00 	jarl	161e <_list_test_ERR_3+0x10e>, lp
    161e:	44 fa       	add	4, lp
    1620:	6a 00       	jmp	[r10]
    1622:	3d 57 05 00 	ld.w	4[r29], r10
    1626:	0a 56 00 04 	addi	1024, r10, r10
    162a:	0a 30       	mov	r10, r6
    162c:	2a 06 1a 0a 	mov	0xa1a, r10
    1630:	00 00 
    1632:	80 ff 04 00 	jarl	1636 <_list_test_ERR_3+0x126>, lp
    1636:	44 fa       	add	4, lp
    1638:	6a 00       	jmp	[r10]
    163a:	7d 57 01 00 	st.w	r10, 0[r29]
    163e:	3d 57 01 00 	ld.w	0[r29], r10
    1642:	7f 52       	cmp	-1, r10
    1644:	ea 0d       	bne	1660 <_list_test_ERR_3+0x150>
    1646:	26 06 d4 1b 	mov	0x1bd4, r6
    164a:	00 00 
    164c:	20 3e 2a 00 	movea	42, r0, r7
    1650:	2a 06 82 13 	mov	0x1382, r10
    1654:	00 00 
    1656:	80 ff 04 00 	jarl	165a <_list_test_ERR_3+0x14a>, lp
    165a:	44 fa       	add	4, lp
    165c:	6a 00       	jmp	[r10]
    165e:	d5 0d       	br	1678 <_list_test_ERR_3+0x168>
    1660:	26 06 fb 1b 	mov	0x1bfb, r6
    1664:	00 00 
    1666:	20 3e 2a 00 	movea	42, r0, r7
    166a:	2a 06 82 13 	mov	0x1382, r10
    166e:	00 00 
    1670:	80 ff 04 00 	jarl	1674 <_list_test_ERR_3+0x164>, lp
    1674:	44 fa       	add	4, lp
    1676:	6a 00       	jmp	[r10]
    1678:	00 00       	nop	
    167a:	1d 18       	mov	r29, sp
    167c:	23 ff 0d 00 	ld.w	12[sp], lp
    1680:	23 ef 09 00 	ld.w	8[sp], r29
    1684:	03 1e 10 00 	addi	16, sp, sp
    1688:	7f 00       	jmp	[lp]

0000168a <_list_test_OK_1>:
    168a:	58 1a       	add	-8, sp
    168c:	63 ff 05 00 	st.w	lp, 4[sp]
    1690:	63 ef 01 00 	st.w	r29, 0[sp]
    1694:	5c 1a       	add	-4, sp
    1696:	03 e8       	mov	sp, r29
    1698:	2a 06 80 09 	mov	0x980, r10
    169c:	00 00 
    169e:	80 ff 04 00 	jarl	16a2 <_list_test_OK_1+0x18>, lp
    16a2:	44 fa       	add	4, lp
    16a4:	6a 00       	jmp	[r10]
    16a6:	2a 06 a8 09 	mov	0x9a8, r10
    16aa:	00 00 
    16ac:	80 ff 04 00 	jarl	16b0 <_list_test_OK_1+0x26>, lp
    16b0:	44 fa       	add	4, lp
    16b2:	6a 00       	jmp	[r10]
    16b4:	7d 57 01 00 	st.w	r10, 0[r29]
    16b8:	3d 57 01 00 	ld.w	0[r29], r10
    16bc:	60 52       	cmp	0, r10
    16be:	e2 0d       	be	16da <_list_test_OK_1+0x50>
    16c0:	26 06 22 1c 	mov	0x1c22, r6
    16c4:	00 00 
    16c6:	20 3e 34 00 	movea	52, r0, r7
    16ca:	2a 06 82 13 	mov	0x1382, r10
    16ce:	00 00 
    16d0:	80 ff 04 00 	jarl	16d4 <_list_test_OK_1+0x4a>, lp
    16d4:	44 fa       	add	4, lp
    16d6:	6a 00       	jmp	[r10]
    16d8:	d5 0d       	br	16f2 <_list_test_OK_1+0x68>
    16da:	26 06 50 1c 	mov	0x1c50, r6
    16de:	00 00 
    16e0:	20 3e 34 00 	movea	52, r0, r7
    16e4:	2a 06 82 13 	mov	0x1382, r10
    16e8:	00 00 
    16ea:	80 ff 04 00 	jarl	16ee <_list_test_OK_1+0x64>, lp
    16ee:	44 fa       	add	4, lp
    16f0:	6a 00       	jmp	[r10]
    16f2:	00 00       	nop	
    16f4:	1d 18       	mov	r29, sp
    16f6:	23 ff 09 00 	ld.w	8[sp], lp
    16fa:	23 ef 05 00 	ld.w	4[sp], r29
    16fe:	4c 1a       	add	12, sp
    1700:	7f 00       	jmp	[lp]

00001702 <_list_test_OK_2>:
    1702:	58 1a       	add	-8, sp
    1704:	63 ff 05 00 	st.w	lp, 4[sp]
    1708:	63 ef 01 00 	st.w	r29, 0[sp]
    170c:	58 1a       	add	-8, sp
    170e:	03 e8       	mov	sp, r29
    1710:	2a 06 80 09 	mov	0x980, r10
    1714:	00 00 
    1716:	80 ff 04 00 	jarl	171a <_list_test_OK_2+0x18>, lp
    171a:	44 fa       	add	4, lp
    171c:	6a 00       	jmp	[r10]
    171e:	2a 06 a8 09 	mov	0x9a8, r10
    1722:	00 00 
    1724:	80 ff 04 00 	jarl	1728 <_list_test_OK_2+0x26>, lp
    1728:	44 fa       	add	4, lp
    172a:	6a 00       	jmp	[r10]
    172c:	7d 57 05 00 	st.w	r10, 4[r29]
    1730:	3d 57 05 00 	ld.w	4[r29], r10
    1734:	60 52       	cmp	0, r10
    1736:	e2 0d       	be	1752 <_list_test_OK_2+0x50>
    1738:	26 06 22 1c 	mov	0x1c22, r6
    173c:	00 00 
    173e:	20 3e 3f 00 	movea	63, r0, r7
    1742:	2a 06 82 13 	mov	0x1382, r10
    1746:	00 00 
    1748:	80 ff 04 00 	jarl	174c <_list_test_OK_2+0x4a>, lp
    174c:	44 fa       	add	4, lp
    174e:	6a 00       	jmp	[r10]
    1750:	d5 0d       	br	176a <_list_test_OK_2+0x68>
    1752:	26 06 50 1c 	mov	0x1c50, r6
    1756:	00 00 
    1758:	20 3e 3f 00 	movea	63, r0, r7
    175c:	2a 06 82 13 	mov	0x1382, r10
    1760:	00 00 
    1762:	80 ff 04 00 	jarl	1766 <_list_test_OK_2+0x64>, lp
    1766:	44 fa       	add	4, lp
    1768:	6a 00       	jmp	[r10]
    176a:	3d 37 05 00 	ld.w	4[r29], r6
    176e:	2a 06 1a 0a 	mov	0xa1a, r10
    1772:	00 00 
    1774:	80 ff 04 00 	jarl	1778 <_list_test_OK_2+0x76>, lp
    1778:	44 fa       	add	4, lp
    177a:	6a 00       	jmp	[r10]
    177c:	7d 57 01 00 	st.w	r10, 0[r29]
    1780:	3d 57 01 00 	ld.w	0[r29], r10
    1784:	60 52       	cmp	0, r10
    1786:	ea 0d       	bne	17a2 <_list_test_OK_2+0xa0>
    1788:	26 06 7e 1c 	mov	0x1c7e, r6
    178c:	00 00 
    178e:	20 3e 42 00 	movea	66, r0, r7
    1792:	2a 06 82 13 	mov	0x1382, r10
    1796:	00 00 
    1798:	80 ff 04 00 	jarl	179c <_list_test_OK_2+0x9a>, lp
    179c:	44 fa       	add	4, lp
    179e:	6a 00       	jmp	[r10]
    17a0:	d5 0d       	br	17ba <_list_test_OK_2+0xb8>
    17a2:	26 06 a4 1c 	mov	0x1ca4, r6
    17a6:	00 00 
    17a8:	20 3e 42 00 	movea	66, r0, r7
    17ac:	2a 06 82 13 	mov	0x1382, r10
    17b0:	00 00 
    17b2:	80 ff 04 00 	jarl	17b6 <_list_test_OK_2+0xb4>, lp
    17b6:	44 fa       	add	4, lp
    17b8:	6a 00       	jmp	[r10]
    17ba:	00 00       	nop	
    17bc:	1d 18       	mov	r29, sp
    17be:	23 ff 0d 00 	ld.w	12[sp], lp
    17c2:	23 ef 09 00 	ld.w	8[sp], r29
    17c6:	03 1e 10 00 	addi	16, sp, sp
    17ca:	7f 00       	jmp	[lp]

000017cc <_list_test_OK_3>:
    17cc:	58 1a       	add	-8, sp
    17ce:	63 ff 05 00 	st.w	lp, 4[sp]
    17d2:	63 ef 01 00 	st.w	r29, 0[sp]
    17d6:	03 1e e8 ff 	addi	-24, sp, sp
    17da:	03 e8       	mov	sp, r29
    17dc:	2a 06 80 09 	mov	0x980, r10
    17e0:	00 00 
    17e2:	80 ff 04 00 	jarl	17e6 <_list_test_OK_3+0x1a>, lp
    17e6:	44 fa       	add	4, lp
    17e8:	6a 00       	jmp	[r10]
    17ea:	7d 07 15 00 	st.w	r0, 20[r29]
    17ee:	f5 3d       	br	186c <_list_test_OK_3+0xa0>
    17f0:	2a 06 a8 09 	mov	0x9a8, r10
    17f4:	00 00 
    17f6:	80 ff 04 00 	jarl	17fa <_list_test_OK_3+0x2e>, lp
    17fa:	44 fa       	add	4, lp
    17fc:	6a 00       	jmp	[r10]
    17fe:	0a 58       	mov	r10, r11
    1800:	3d 57 15 00 	ld.w	20[r29], r10
    1804:	c2 52       	shl	2, r10
    1806:	20 66 18 00 	movea	24, r0, r12
    180a:	dd 61       	add	r29, r12
    180c:	cc 51       	add	r12, r10
    180e:	0a 56 e8 ff 	addi	-24, r10, r10
    1812:	6a 5f 01 00 	st.w	r11, 0[r10]
    1816:	3d 57 15 00 	ld.w	20[r29], r10
    181a:	c2 52       	shl	2, r10
    181c:	20 5e 18 00 	movea	24, r0, r11
    1820:	dd 59       	add	r29, r11
    1822:	cb 51       	add	r11, r10
    1824:	0a 56 e8 ff 	addi	-24, r10, r10
    1828:	2a 57 01 00 	ld.w	0[r10], r10
    182c:	60 52       	cmp	0, r10
    182e:	e2 0d       	be	184a <_list_test_OK_3+0x7e>
    1830:	26 06 ca 1c 	mov	0x1cca, r6
    1834:	00 00 
    1836:	20 3e 51 00 	movea	81, r0, r7
    183a:	2a 06 82 13 	mov	0x1382, r10
    183e:	00 00 
    1840:	80 ff 04 00 	jarl	1844 <_list_test_OK_3+0x78>, lp
    1844:	44 fa       	add	4, lp
    1846:	6a 00       	jmp	[r10]
    1848:	d5 0d       	br	1862 <_list_test_OK_3+0x96>
    184a:	26 06 fb 1c 	mov	0x1cfb, r6
    184e:	00 00 
    1850:	20 3e 51 00 	movea	81, r0, r7
    1854:	2a 06 82 13 	mov	0x1382, r10
    1858:	00 00 
    185a:	80 ff 04 00 	jarl	185e <_list_test_OK_3+0x92>, lp
    185e:	44 fa       	add	4, lp
    1860:	6a 00       	jmp	[r10]
    1862:	3d 57 15 00 	ld.w	20[r29], r10
    1866:	41 52       	add	1, r10
    1868:	7d 57 15 00 	st.w	r10, 20[r29]
    186c:	3d 57 15 00 	ld.w	20[r29], r10
    1870:	62 52       	cmp	2, r10
    1872:	f7 bd       	ble	17f0 <_list_test_OK_3+0x24>
    1874:	2a 06 a8 09 	mov	0x9a8, r10
    1878:	00 00 
    187a:	80 ff 04 00 	jarl	187e <_list_test_OK_3+0xb2>, lp
    187e:	44 fa       	add	4, lp
    1880:	6a 00       	jmp	[r10]
    1882:	7d 57 11 00 	st.w	r10, 16[r29]
    1886:	3d 57 11 00 	ld.w	16[r29], r10
    188a:	60 52       	cmp	0, r10
    188c:	ea 0d       	bne	18a8 <_list_test_OK_3+0xdc>
    188e:	26 06 2c 1d 	mov	0x1d2c, r6
    1892:	00 00 
    1894:	20 3e 55 00 	movea	85, r0, r7
    1898:	2a 06 82 13 	mov	0x1382, r10
    189c:	00 00 
    189e:	80 ff 04 00 	jarl	18a2 <_list_test_OK_3+0xd6>, lp
    18a2:	44 fa       	add	4, lp
    18a4:	6a 00       	jmp	[r10]
    18a6:	d5 0d       	br	18c0 <_list_test_OK_3+0xf4>
    18a8:	26 06 5e 1d 	mov	0x1d5e, r6
    18ac:	00 00 
    18ae:	20 3e 55 00 	movea	85, r0, r7
    18b2:	2a 06 82 13 	mov	0x1382, r10
    18b6:	00 00 
    18b8:	80 ff 04 00 	jarl	18bc <_list_test_OK_3+0xf0>, lp
    18bc:	44 fa       	add	4, lp
    18be:	6a 00       	jmp	[r10]
    18c0:	7d 07 15 00 	st.w	r0, 20[r29]
    18c4:	85 3d       	br	1934 <_list_test_OK_3+0x168>
    18c6:	3d 57 15 00 	ld.w	20[r29], r10
    18ca:	c2 52       	shl	2, r10
    18cc:	20 66 18 00 	movea	24, r0, r12
    18d0:	dd 61       	add	r29, r12
    18d2:	cc 51       	add	r12, r10
    18d4:	0a 56 e8 ff 	addi	-24, r10, r10
    18d8:	2a 57 01 00 	ld.w	0[r10], r10
    18dc:	0a 30       	mov	r10, r6
    18de:	2a 06 1a 0a 	mov	0xa1a, r10
    18e2:	00 00 
    18e4:	80 ff 04 00 	jarl	18e8 <_list_test_OK_3+0x11c>, lp
    18e8:	44 fa       	add	4, lp
    18ea:	6a 00       	jmp	[r10]
    18ec:	7d 57 0d 00 	st.w	r10, 12[r29]
    18f0:	3d 57 0d 00 	ld.w	12[r29], r10
    18f4:	60 52       	cmp	0, r10
    18f6:	ea 0d       	bne	1912 <_list_test_OK_3+0x146>
    18f8:	26 06 7e 1c 	mov	0x1c7e, r6
    18fc:	00 00 
    18fe:	20 3e 59 00 	movea	89, r0, r7
    1902:	2a 06 82 13 	mov	0x1382, r10
    1906:	00 00 
    1908:	80 ff 04 00 	jarl	190c <_list_test_OK_3+0x140>, lp
    190c:	44 fa       	add	4, lp
    190e:	6a 00       	jmp	[r10]
    1910:	d5 0d       	br	192a <_list_test_OK_3+0x15e>
    1912:	26 06 a4 1c 	mov	0x1ca4, r6
    1916:	00 00 
    1918:	20 3e 59 00 	movea	89, r0, r7
    191c:	2a 06 82 13 	mov	0x1382, r10
    1920:	00 00 
    1922:	80 ff 04 00 	jarl	1926 <_list_test_OK_3+0x15a>, lp
    1926:	44 fa       	add	4, lp
    1928:	6a 00       	jmp	[r10]
    192a:	3d 57 15 00 	ld.w	20[r29], r10
    192e:	41 52       	add	1, r10
    1930:	7d 57 15 00 	st.w	r10, 20[r29]
    1934:	3d 57 15 00 	ld.w	20[r29], r10
    1938:	62 52       	cmp	2, r10
    193a:	e7 c5       	ble	18c6 <_list_test_OK_3+0xfa>
    193c:	00 00       	nop	
    193e:	1d 18       	mov	r29, sp
    1940:	23 ff 1d 00 	ld.w	28[sp], lp
    1944:	23 ef 19 00 	ld.w	24[sp], r29
    1948:	03 1e 20 00 	addi	32, sp, sp
    194c:	7f 00       	jmp	[lp]

0000194e <_test_print>:
    194e:	5c 1a       	add	-4, sp
    1950:	63 ef 01 00 	st.w	r29, 0[sp]
    1954:	58 1a       	add	-8, sp
    1956:	03 e8       	mov	sp, r29
    1958:	7d 37 01 00 	st.w	r6, 0[r29]
    195c:	7d 07 05 00 	st.w	r0, 4[r29]
    1960:	c5 15       	br	1988 <_test_print+0x3a>
    1962:	20 56 07 fa 	movea	-1529, r0, r10
    1966:	3d 5f 05 00 	ld.w	4[r29], r11
    196a:	3d 67 01 00 	ld.w	0[r29], r12
    196e:	cc 59       	add	r12, r11
    1970:	0b 5f 00 00 	ld.b	0[r11], r11
    1974:	d8 5a       	shl	24, r11
    1976:	b8 5a       	sar	24, r11
    1978:	8b 00       	zxb	r11
    197a:	4a 5f 00 00 	st.b	r11, 0[r10]
    197e:	3d 57 05 00 	ld.w	4[r29], r10
    1982:	41 52       	add	1, r10
    1984:	7d 57 05 00 	st.w	r10, 4[r29]
    1988:	3d 57 05 00 	ld.w	4[r29], r10
    198c:	3d 5f 01 00 	ld.w	0[r29], r11
    1990:	cb 51       	add	r11, r10
    1992:	0a 57 00 00 	ld.b	0[r10], r10
    1996:	d8 52       	shl	24, r10
    1998:	b8 52       	sar	24, r10
    199a:	60 52       	cmp	0, r10
    199c:	ba e5       	bne	1962 <_test_print+0x14>
    199e:	1d 18       	mov	r29, sp
    19a0:	23 ef 09 00 	ld.w	8[sp], r29
    19a4:	4c 1a       	add	12, sp
    19a6:	7f 00       	jmp	[lp]

000019a8 <_test_suite>:
    19a8:	58 1a       	add	-8, sp
    19aa:	63 ff 05 00 	st.w	lp, 4[sp]
    19ae:	63 ef 01 00 	st.w	r29, 0[sp]
    19b2:	03 e8       	mov	sp, r29
    19b4:	2a 06 00 1a 	mov	0x1a00, r10
    19b8:	00 00 
    19ba:	80 ff 04 00 	jarl	19be <_test_suite+0x16>, lp
    19be:	44 fa       	add	4, lp
    19c0:	6a 00       	jmp	[r10]
    19c2:	60 52       	cmp	0, r10
    19c4:	ca 0d       	bne	19dc <_test_suite+0x34>
    19c6:	26 06 a4 1d 	mov	0x1da4, r6
    19ca:	00 00 
    19cc:	2a 06 4e 19 	mov	0x194e, r10
    19d0:	00 00 
    19d2:	80 ff 04 00 	jarl	19d6 <_test_suite+0x2e>, lp
    19d6:	44 fa       	add	4, lp
    19d8:	6a 00       	jmp	[r10]
    19da:	b5 0d       	br	19f0 <_test_suite+0x48>
    19dc:	26 06 bc 1d 	mov	0x1dbc, r6
    19e0:	00 00 
    19e2:	2a 06 4e 19 	mov	0x194e, r10
    19e6:	00 00 
    19e8:	80 ff 04 00 	jarl	19ec <_test_suite+0x44>, lp
    19ec:	44 fa       	add	4, lp
    19ee:	6a 00       	jmp	[r10]
    19f0:	00 00       	nop	
    19f2:	1d 18       	mov	r29, sp
    19f4:	23 ff 05 00 	ld.w	4[sp], lp
    19f8:	23 ef 01 00 	ld.w	0[sp], r29
    19fc:	48 1a       	add	8, sp
    19fe:	7f 00       	jmp	[lp]

00001a00 <_do_test_add1_1>:
    1a00:	03 1e ec ff 	addi	-20, sp, sp
    1a04:	63 a7 01 00 	st.w	r20, 0[sp]
    1a08:	63 af 05 00 	st.w	r21, 4[sp]
    1a0c:	63 b7 09 00 	st.w	r22, 8[sp]
    1a10:	63 bf 0d 00 	st.w	r23, 12[sp]
    1a14:	63 c7 11 00 	st.w	r24, 16[sp]
    1a18:	1f 52       	mov	-1, r10
    1a1a:	00 a2       	mov	0, r20
    1a1c:	00 aa       	mov	0, r21
    1a1e:	00 b2       	mov	0, r22
    1a20:	01 c2       	mov	1, r24
    1a22:	e0 2f 20 00 	ldsr	r0, psw/vmtid
    1a26:	d4 a9       	add	r20, r21
    1a28:	e5 bf 40 00 	stsr	psw/vmtid, r23
    1a2c:	f5 b1       	cmp	r21, r22
    1a2e:	ca 05       	bne	1a36 <add1_0_test_fail>
    1a30:	f7 c1       	cmp	r23, r24
    1a32:	aa 05       	bne	1a36 <add1_0_test_fail>
    1a34:	00 50       	mov	r0, r10

00001a36 <add1_0_test_fail>:
    1a36:	23 a7 01 00 	ld.w	0[sp], r20
    1a3a:	23 af 05 00 	ld.w	4[sp], r21
    1a3e:	23 b7 09 00 	ld.w	8[sp], r22
    1a42:	23 bf 0d 00 	ld.w	12[sp], r23
    1a46:	23 c7 11 00 	ld.w	16[sp], r24
    1a4a:	03 1e 14 00 	addi	20, sp, sp
    1a4e:	7f 00       	jmp	[lp]
