
test_main.elf:     file format elf32-v850-rh850


Disassembly of section .vector:

00000000 <__reset>:
   0:	80 07 d0 07 	jr	7d0 <_start>
	...
  10:	80 07 e0 07 	jr	7f0 <_default_int_handler>
	...
  20:	80 07 d0 07 	jr	7f0 <_default_int_handler>
	...
  40:	80 07 b0 07 	jr	7f0 <_default_int_handler>
	...
  50:	80 07 a0 07 	jr	7f0 <_default_int_handler>
	...
  60:	80 07 90 07 	jr	7f0 <_default_int_handler>
	...
  80:	80 07 70 07 	jr	7f0 <_default_int_handler>
	...
  90:	80 07 60 07 	jr	7f0 <_default_int_handler>
	...
  a0:	80 07 50 07 	jr	7f0 <_default_int_handler>
	...
  b0:	80 07 40 07 	jr	7f0 <_default_int_handler>
	...
  c0:	80 07 30 07 	jr	7f0 <_default_int_handler>
	...
  d0:	80 07 20 07 	jr	7f0 <_default_int_handler>
	...
  e0:	80 07 10 07 	jr	7f0 <_default_int_handler>
	...
  f0:	80 07 00 07 	jr	7f0 <_default_int_handler>
	...
 100:	80 07 f0 06 	jr	7f0 <_default_int_handler>
	...
 110:	80 07 e0 06 	jr	7f0 <_default_int_handler>
	...
 120:	80 07 d0 06 	jr	7f0 <_default_int_handler>
	...
 130:	80 07 c0 06 	jr	7f0 <_default_int_handler>
	...
 140:	80 07 b0 06 	jr	7f0 <_default_int_handler>
	...
 150:	80 07 a0 06 	jr	7f0 <_default_int_handler>
	...
 160:	80 07 90 06 	jr	7f0 <_default_int_handler>
	...
 170:	80 07 80 06 	jr	7f0 <_default_int_handler>
	...
 180:	80 07 70 06 	jr	7f0 <_default_int_handler>
	...
 190:	80 07 60 06 	jr	7f0 <_default_int_handler>
	...
 1a0:	80 07 50 06 	jr	7f0 <_default_int_handler>
	...
 1b0:	80 07 40 06 	jr	7f0 <_default_int_handler>
	...
 1c0:	80 07 30 06 	jr	7f0 <_default_int_handler>
	...
 1d0:	80 07 20 06 	jr	7f0 <_default_int_handler>
	...
 1e0:	80 07 10 06 	jr	7f0 <_default_int_handler>
	...
 1f0:	80 07 00 06 	jr	7f0 <_default_int_handler>
	...
 200:	80 07 f0 05 	jr	7f0 <_default_int_handler>
	...
 210:	80 07 e0 05 	jr	7f0 <_default_int_handler>
	...
 220:	80 07 d0 05 	jr	7f0 <_default_int_handler>
	...
 230:	80 07 c0 05 	jr	7f0 <_default_int_handler>
	...
 240:	80 07 b0 05 	jr	7f0 <_default_int_handler>
	...
 250:	80 07 a0 05 	jr	7f0 <_default_int_handler>
	...
 260:	80 07 90 05 	jr	7f0 <_default_int_handler>
	...
 270:	80 07 80 05 	jr	7f0 <_default_int_handler>
	...
 280:	80 07 70 05 	jr	7f0 <_default_int_handler>
	...
 290:	80 07 60 05 	jr	7f0 <_default_int_handler>
	...
 2a0:	80 07 50 05 	jr	7f0 <_default_int_handler>
	...
 2b0:	80 07 40 05 	jr	7f0 <_default_int_handler>
	...
 2c0:	80 07 30 05 	jr	7f0 <_default_int_handler>
	...
 2d0:	80 07 20 05 	jr	7f0 <_default_int_handler>
	...
 2e0:	80 07 10 05 	jr	7f0 <_default_int_handler>
	...
 2f0:	80 07 00 05 	jr	7f0 <_default_int_handler>
	...
 300:	80 07 f0 04 	jr	7f0 <_default_int_handler>
	...
 310:	80 07 e0 04 	jr	7f0 <_default_int_handler>
	...
 320:	80 07 d0 04 	jr	7f0 <_default_int_handler>
	...
 330:	80 07 c0 04 	jr	7f0 <_default_int_handler>
	...
 340:	80 07 b0 04 	jr	7f0 <_default_int_handler>
	...
 350:	80 07 a0 04 	jr	7f0 <_default_int_handler>
	...
 360:	80 07 90 04 	jr	7f0 <_default_int_handler>
	...
 370:	80 07 80 04 	jr	7f0 <_default_int_handler>
	...
 380:	80 07 70 04 	jr	7f0 <_default_int_handler>
	...
 390:	80 07 60 04 	jr	7f0 <_default_int_handler>
	...
 3a0:	80 07 50 04 	jr	7f0 <_default_int_handler>
	...
 3b0:	80 07 40 04 	jr	7f0 <_default_int_handler>
	...
 3c0:	80 07 30 04 	jr	7f0 <_default_int_handler>
	...
 3d0:	80 07 20 04 	jr	7f0 <_default_int_handler>
	...
 3e0:	80 07 10 04 	jr	7f0 <_default_int_handler>
	...
 3f0:	80 07 00 04 	jr	7f0 <_default_int_handler>
	...
 400:	80 07 f0 03 	jr	7f0 <_default_int_handler>
	...
 410:	80 07 e0 03 	jr	7f0 <_default_int_handler>
	...
 420:	80 07 d0 03 	jr	7f0 <_default_int_handler>
	...
 430:	80 07 c0 03 	jr	7f0 <_default_int_handler>
	...
 440:	80 07 b0 03 	jr	7f0 <_default_int_handler>
	...
 450:	80 07 a0 03 	jr	7f0 <_default_int_handler>
	...
 460:	80 07 90 03 	jr	7f0 <_default_int_handler>
	...
 470:	80 07 80 03 	jr	7f0 <_default_int_handler>
	...
 480:	80 07 70 03 	jr	7f0 <_default_int_handler>
	...
 490:	80 07 60 03 	jr	7f0 <_default_int_handler>
	...
 4a0:	80 07 50 03 	jr	7f0 <_default_int_handler>
	...
 4b0:	80 07 40 03 	jr	7f0 <_default_int_handler>
	...
 4c0:	80 07 30 03 	jr	7f0 <_default_int_handler>
	...
 4d0:	80 07 20 03 	jr	7f0 <_default_int_handler>
	...
 4e0:	80 07 10 03 	jr	7f0 <_default_int_handler>
	...
 4f0:	80 07 00 03 	jr	7f0 <_default_int_handler>
	...
 500:	80 07 f0 02 	jr	7f0 <_default_int_handler>
	...
 510:	80 07 e0 02 	jr	7f0 <_default_int_handler>
	...
 520:	80 07 d0 02 	jr	7f0 <_default_int_handler>
	...
 530:	80 07 c0 02 	jr	7f0 <_default_int_handler>
	...
 540:	80 07 b0 02 	jr	7f0 <_default_int_handler>
	...
 550:	80 07 a0 02 	jr	7f0 <_default_int_handler>
	...
 560:	80 07 90 02 	jr	7f0 <_default_int_handler>
	...
 570:	80 07 80 02 	jr	7f0 <_default_int_handler>
	...
 580:	80 07 70 02 	jr	7f0 <_default_int_handler>
	...
 590:	80 07 60 02 	jr	7f0 <_default_int_handler>
	...
 5a0:	80 07 50 02 	jr	7f0 <_default_int_handler>
	...
 5b0:	80 07 40 02 	jr	7f0 <_default_int_handler>
	...
 5c0:	80 07 30 02 	jr	7f0 <_default_int_handler>
	...
 5d0:	80 07 20 02 	jr	7f0 <_default_int_handler>
	...
 5e0:	80 07 10 02 	jr	7f0 <_default_int_handler>
	...
 5f0:	80 07 00 02 	jr	7f0 <_default_int_handler>
	...
 600:	80 07 f0 01 	jr	7f0 <_default_int_handler>
	...
 610:	80 07 e0 01 	jr	7f0 <_default_int_handler>
	...
 620:	80 07 d0 01 	jr	7f0 <_default_int_handler>
	...
 630:	80 07 c0 01 	jr	7f0 <_default_int_handler>
	...
 640:	80 07 b0 01 	jr	7f0 <_default_int_handler>
	...
 650:	80 07 a0 01 	jr	7f0 <_default_int_handler>
	...
 660:	80 07 90 01 	jr	7f0 <_default_int_handler>
	...
 670:	80 07 80 01 	jr	7f0 <_default_int_handler>
	...
 680:	80 07 70 01 	jr	7f0 <_default_int_handler>
	...
 690:	80 07 60 01 	jr	7f0 <_default_int_handler>
	...
 6a0:	80 07 50 01 	jr	7f0 <_default_int_handler>
	...
 6b0:	80 07 40 01 	jr	7f0 <_default_int_handler>
	...
 6c0:	80 07 30 01 	jr	7f0 <_default_int_handler>
	...
 6d0:	80 07 20 01 	jr	7f0 <_default_int_handler>
	...
 6e0:	80 07 10 01 	jr	7f0 <_default_int_handler>
	...
 6f0:	80 07 00 01 	jr	7f0 <_default_int_handler>
	...
 700:	80 07 f0 00 	jr	7f0 <_default_int_handler>
	...
 710:	80 07 e0 00 	jr	7f0 <_default_int_handler>
	...
 720:	80 07 d0 00 	jr	7f0 <_default_int_handler>
	...
 730:	80 07 c0 00 	jr	7f0 <_default_int_handler>
	...
 740:	80 07 b0 00 	jr	7f0 <_default_int_handler>
	...
 750:	80 07 a0 00 	jr	7f0 <_default_int_handler>
	...
 760:	80 07 90 00 	jr	7f0 <_default_int_handler>
	...
 770:	80 07 80 00 	jr	7f0 <_default_int_handler>
	...
 780:	80 07 70 00 	jr	7f0 <_default_int_handler>
	...
 790:	80 07 60 00 	jr	7f0 <_default_int_handler>
	...
 7a0:	80 07 50 00 	jr	7f0 <_default_int_handler>
	...
 7b0:	80 07 40 00 	jr	7f0 <_default_int_handler>
	...
 7c0:	80 07 30 00 	jr	7f0 <_default_int_handler>
	...

Disassembly of section .text:

000007d0 <_start>:
     7d0:	e0 07 60 01 	di	
     7d4:	40 1e ff 06 	movhi	1791, r0, sp
     7d8:	23 1e 00 70 	movea	28672, sp, sp
     7dc:	03 1e 00 04 	addi	1024, sp, sp
     7e0:	80 ff fe 00 	jarl	8de <_bss_clear>, lp
     7e4:	80 ff 42 01 	jarl	926 <_data_init>, lp
     7e8:	e0 87 60 01 	ei	
     7ec:	e5 3d       	br	868 <_main>
	...

000007f0 <_default_int_handler>:
     7f0:	85 05       	br	7f0 <_default_int_handler>
	...

00000800 <_training>:
     800:	09 9e 00 04 	addi	1024, r9, r19
     804:	a5 35       	br	868 <_main>
	...

00000810 <_test_print>:
     810:	54 1a       	add	-12, sp
     812:	63 ef 09 00 	st.w	r29, 8[sp]
     816:	03 e8       	mov	sp, r29
     818:	7d 37 01 00 	st.w	r6, 0[r29]
     81c:	7d 07 05 00 	st.w	r0, 4[r29]
     820:	c5 15       	br	848 <_test_print+0x38>
     822:	20 56 07 fa 	movea	-1529, r0, r10
     826:	3d 5f 05 00 	ld.w	4[r29], r11
     82a:	3d 67 01 00 	ld.w	0[r29], r12
     82e:	cc 59       	add	r12, r11
     830:	0b 5f 00 00 	ld.b	0[r11], r11
     834:	d8 5a       	shl	24, r11
     836:	b8 5a       	sar	24, r11
     838:	8b 00       	zxb	r11
     83a:	4a 5f 00 00 	st.b	r11, 0[r10]
     83e:	3d 57 05 00 	ld.w	4[r29], r10
     842:	41 52       	add	1, r10
     844:	7d 57 05 00 	st.w	r10, 4[r29]
     848:	3d 57 05 00 	ld.w	4[r29], r10
     84c:	3d 5f 01 00 	ld.w	0[r29], r11
     850:	cb 51       	add	r11, r10
     852:	0a 57 00 00 	ld.b	0[r10], r10
     856:	d8 52       	shl	24, r10
     858:	b8 52       	sar	24, r10
     85a:	60 52       	cmp	0, r10
     85c:	ba e5       	bne	822 <_test_print+0x12>
     85e:	1d 18       	mov	r29, sp
     860:	23 ef 09 00 	ld.w	8[sp], r29
     864:	4c 1a       	add	12, sp
     866:	7f 00       	jmp	[lp]

00000868 <_main>:
     868:	58 1a       	add	-8, sp
     86a:	63 ff 05 00 	st.w	lp, 4[sp]
     86e:	63 ef 01 00 	st.w	r29, 0[sp]
     872:	03 e8       	mov	sp, r29
     874:	2a 06 c4 13 	mov	0x13c4, r10
     878:	00 00 
     87a:	80 ff 04 00 	jarl	87e <_main+0x16>, lp
     87e:	44 fa       	add	4, lp
     880:	6a 00       	jmp	[r10]
     882:	2a 06 76 14 	mov	0x1476, r10
     886:	00 00 
     888:	80 ff 04 00 	jarl	88c <_main+0x24>, lp
     88c:	44 fa       	add	4, lp
     88e:	6a 00       	jmp	[r10]
     890:	2a 06 ea 14 	mov	0x14ea, r10
     894:	00 00 
     896:	80 ff 04 00 	jarl	89a <_main+0x32>, lp
     89a:	44 fa       	add	4, lp
     89c:	6a 00       	jmp	[r10]
     89e:	2a 06 62 16 	mov	0x1662, r10
     8a2:	00 00 
     8a4:	80 ff 04 00 	jarl	8a8 <_main+0x40>, lp
     8a8:	44 fa       	add	4, lp
     8aa:	6a 00       	jmp	[r10]
     8ac:	2a 06 d8 16 	mov	0x16d8, r10
     8b0:	00 00 
     8b2:	80 ff 04 00 	jarl	8b6 <_main+0x4e>, lp
     8b6:	44 fa       	add	4, lp
     8b8:	6a 00       	jmp	[r10]
     8ba:	2a 06 a0 17 	mov	0x17a0, r10
     8be:	00 00 
     8c0:	80 ff 04 00 	jarl	8c4 <_main+0x5c>, lp
     8c4:	44 fa       	add	4, lp
     8c6:	6a 00       	jmp	[r10]
     8c8:	26 06 34 1a 	mov	0x1a34, r6
     8cc:	00 00 
     8ce:	2a 06 10 08 	mov	0x810, r10
     8d2:	00 00 
     8d4:	80 ff 04 00 	jarl	8d8 <_main+0x70>, lp
     8d8:	44 fa       	add	4, lp
     8da:	6a 00       	jmp	[r10]
     8dc:	85 05       	br	8dc <_main+0x74>

000008de <_bss_clear>:
     8de:	54 1a       	add	-12, sp
     8e0:	63 ef 09 00 	st.w	r29, 8[sp]
     8e4:	03 e8       	mov	sp, r29
     8e6:	2a 06 00 74 	mov	0x6ff7400, r10
     8ea:	ff 06 
     8ec:	7d 57 05 00 	st.w	r10, 4[r29]
     8f0:	2a 06 88 74 	mov	0x6ff7488, r10
     8f4:	ff 06 
     8f6:	7d 57 01 00 	st.w	r10, 0[r29]
     8fa:	a5 0d       	br	90e <_bss_clear+0x30>
     8fc:	3d 57 05 00 	ld.w	4[r29], r10
     900:	4a 07 00 00 	st.b	r0, 0[r10]
     904:	3d 57 05 00 	ld.w	4[r29], r10
     908:	41 52       	add	1, r10
     90a:	7d 57 05 00 	st.w	r10, 4[r29]
     90e:	3d 5f 05 00 	ld.w	4[r29], r11
     912:	3d 57 01 00 	ld.w	0[r29], r10
     916:	ea 59       	cmp	r10, r11
     918:	a1 f5       	bl	8fc <_bss_clear+0x1e>
     91a:	00 00       	nop	
     91c:	1d 18       	mov	r29, sp
     91e:	23 ef 09 00 	ld.w	8[sp], r29
     922:	4c 1a       	add	12, sp
     924:	7f 00       	jmp	[lp]

00000926 <_data_init>:
     926:	50 1a       	add	-16, sp
     928:	63 ef 0d 00 	st.w	r29, 12[sp]
     92c:	03 e8       	mov	sp, r29
     92e:	2a 06 a4 1d 	mov	0x1da4, r10
     932:	00 00 
     934:	7d 57 09 00 	st.w	r10, 8[r29]
     938:	2a 06 a4 1d 	mov	0x1da4, r10
     93c:	00 00 
     93e:	7d 57 01 00 	st.w	r10, 0[r29]
     942:	2a 06 00 70 	mov	0x6ff7000, r10
     946:	ff 06 
     948:	7d 57 05 00 	st.w	r10, 4[r29]
     94c:	b5 15       	br	972 <_data_init+0x4c>
     94e:	3d 57 09 00 	ld.w	8[r29], r10
     952:	8a 5f 01 00 	ld.bu	0[r10], r11
     956:	3d 57 05 00 	ld.w	4[r29], r10
     95a:	4a 5f 00 00 	st.b	r11, 0[r10]
     95e:	3d 57 05 00 	ld.w	4[r29], r10
     962:	41 52       	add	1, r10
     964:	7d 57 05 00 	st.w	r10, 4[r29]
     968:	3d 57 09 00 	ld.w	8[r29], r10
     96c:	41 52       	add	1, r10
     96e:	7d 57 09 00 	st.w	r10, 8[r29]
     972:	3d 5f 09 00 	ld.w	8[r29], r11
     976:	3d 57 01 00 	ld.w	0[r29], r10
     97a:	ea 59       	cmp	r10, r11
     97c:	91 ed       	bl	94e <_data_init+0x28>
     97e:	1d 18       	mov	r29, sp
     980:	23 ef 0d 00 	ld.w	12[sp], r29
     984:	03 1e 10 00 	addi	16, sp, sp
     988:	7f 00       	jmp	[lp]

0000098a <_list_init>:
     98a:	58 1a       	add	-8, sp
     98c:	63 ff 05 00 	st.w	lp, 4[sp]
     990:	63 ef 01 00 	st.w	r29, 0[sp]
     994:	03 e8       	mov	sp, r29
     996:	2a 06 58 0c 	mov	0xc58, r10
     99a:	00 00 
     99c:	80 ff 04 00 	jarl	9a0 <_list_init+0x16>, lp
     9a0:	44 fa       	add	4, lp
     9a2:	6a 00       	jmp	[r10]
     9a4:	1d 18       	mov	r29, sp
     9a6:	23 ff 05 00 	ld.w	4[sp], lp
     9aa:	23 ef 01 00 	ld.w	0[sp], r29
     9ae:	48 1a       	add	8, sp
     9b0:	7f 00       	jmp	[lp]

000009b2 <_my_alloc>:
     9b2:	54 1a       	add	-12, sp
     9b4:	63 ff 09 00 	st.w	lp, 8[sp]
     9b8:	63 ef 05 00 	st.w	r29, 4[sp]
     9bc:	03 e8       	mov	sp, r29
     9be:	2a 06 08 74 	mov	0x6ff7408, r10
     9c2:	ff 06 
     9c4:	2a 57 01 00 	ld.w	0[r10], r10
     9c8:	60 52       	cmp	0, r10
     9ca:	ba 05       	bne	9d0 <_my_alloc+0x1e>
     9cc:	00 52       	mov	0, r10
     9ce:	b5 25       	br	a14 <_my_alloc+0x62>
     9d0:	26 06 08 74 	mov	0x6ff7408, r6
     9d4:	ff 06 
     9d6:	2a 06 8a 0e 	mov	0xe8a, r10
     9da:	00 00 
     9dc:	80 ff 04 00 	jarl	9e0 <_my_alloc+0x2e>, lp
     9e0:	44 fa       	add	4, lp
     9e2:	6a 00       	jmp	[r10]
     9e4:	7d 57 01 00 	st.w	r10, 0[r29]
     9e8:	3d 57 01 00 	ld.w	0[r29], r10
     9ec:	60 52       	cmp	0, r10
     9ee:	ba 05       	bne	9f4 <_my_alloc+0x42>
     9f0:	00 52       	mov	0, r10
     9f2:	95 15       	br	a14 <_my_alloc+0x62>
     9f4:	26 06 54 74 	mov	0x6ff7454, r6
     9f8:	ff 06 
     9fa:	3d 3f 01 00 	ld.w	0[r29], r7
     9fe:	2a 06 8c 0f 	mov	0xf8c, r10
     a02:	00 00 
     a04:	80 ff 04 00 	jarl	a08 <_my_alloc+0x56>, lp
     a08:	44 fa       	add	4, lp
     a0a:	6a 00       	jmp	[r10]
     a0c:	3d 57 01 00 	ld.w	0[r29], r10
     a10:	2a 57 09 00 	ld.w	8[r10], r10
     a14:	1d 18       	mov	r29, sp
     a16:	23 ff 09 00 	ld.w	8[sp], lp
     a1a:	23 ef 05 00 	ld.w	4[sp], r29
     a1e:	4c 1a       	add	12, sp
     a20:	7f 00       	jmp	[lp]

00000a22 <_my_free>:
     a22:	50 1a       	add	-16, sp
     a24:	63 ff 0d 00 	st.w	lp, 12[sp]
     a28:	63 ef 09 00 	st.w	r29, 8[sp]
     a2c:	03 e8       	mov	sp, r29
     a2e:	7d 37 01 00 	st.w	r6, 0[r29]
     a32:	3d 37 01 00 	ld.w	0[r29], r6
     a36:	2a 06 52 11 	mov	0x1152, r10
     a3a:	00 00 
     a3c:	80 ff 04 00 	jarl	a40 <_my_free+0x1e>, lp
     a40:	44 fa       	add	4, lp
     a42:	6a 00       	jmp	[r10]
     a44:	7d 57 05 00 	st.w	r10, 4[r29]
     a48:	3d 57 05 00 	ld.w	4[r29], r10
     a4c:	2a 5f 09 00 	ld.w	8[r10], r11
     a50:	3d 57 01 00 	ld.w	0[r29], r10
     a54:	ea 59       	cmp	r10, r11
     a56:	b2 05       	be	a5c <_my_free+0x3a>
     a58:	1f 52       	mov	-1, r10
     a5a:	85 25       	br	a9a <_my_free+0x78>
     a5c:	3d 57 05 00 	ld.w	4[r29], r10
     a60:	60 52       	cmp	0, r10
     a62:	ba 05       	bne	a68 <_my_free+0x46>
     a64:	1f 52       	mov	-1, r10
     a66:	a5 1d       	br	a9a <_my_free+0x78>
     a68:	26 06 54 74 	mov	0x6ff7454, r6
     a6c:	ff 06 
     a6e:	3d 3f 05 00 	ld.w	4[r29], r7
     a72:	2a 06 dc 0d 	mov	0xddc, r10
     a76:	00 00 
     a78:	80 ff 04 00 	jarl	a7c <_my_free+0x5a>, lp
     a7c:	44 fa       	add	4, lp
     a7e:	6a 00       	jmp	[r10]
     a80:	26 06 08 74 	mov	0x6ff7408, r6
     a84:	ff 06 
     a86:	3d 3f 05 00 	ld.w	4[r29], r7
     a8a:	2a 06 8c 0f 	mov	0xf8c, r10
     a8e:	00 00 
     a90:	80 ff 04 00 	jarl	a94 <_my_free+0x72>, lp
     a94:	44 fa       	add	4, lp
     a96:	6a 00       	jmp	[r10]
     a98:	00 52       	mov	0, r10
     a9a:	1d 18       	mov	r29, sp
     a9c:	23 ff 0d 00 	ld.w	12[sp], lp
     aa0:	23 ef 09 00 	ld.w	8[sp], r29
     aa4:	03 1e 10 00 	addi	16, sp, sp
     aa8:	7f 00       	jmp	[lp]

00000aaa <_test_print>:
     aaa:	54 1a       	add	-12, sp
     aac:	63 ef 09 00 	st.w	r29, 8[sp]
     ab0:	03 e8       	mov	sp, r29
     ab2:	7d 37 01 00 	st.w	r6, 0[r29]
     ab6:	7d 07 05 00 	st.w	r0, 4[r29]
     aba:	c5 15       	br	ae2 <_test_print+0x38>
     abc:	20 56 07 fa 	movea	-1529, r0, r10
     ac0:	3d 5f 05 00 	ld.w	4[r29], r11
     ac4:	3d 67 01 00 	ld.w	0[r29], r12
     ac8:	cc 59       	add	r12, r11
     aca:	0b 5f 00 00 	ld.b	0[r11], r11
     ace:	d8 5a       	shl	24, r11
     ad0:	b8 5a       	sar	24, r11
     ad2:	8b 00       	zxb	r11
     ad4:	4a 5f 00 00 	st.b	r11, 0[r10]
     ad8:	3d 57 05 00 	ld.w	4[r29], r10
     adc:	41 52       	add	1, r10
     ade:	7d 57 05 00 	st.w	r10, 4[r29]
     ae2:	3d 57 05 00 	ld.w	4[r29], r10
     ae6:	3d 5f 01 00 	ld.w	0[r29], r11
     aea:	cb 51       	add	r11, r10
     aec:	0a 57 00 00 	ld.b	0[r10], r10
     af0:	d8 52       	shl	24, r10
     af2:	b8 52       	sar	24, r10
     af4:	60 52       	cmp	0, r10
     af6:	ba e5       	bne	abc <_test_print+0x12>
     af8:	1d 18       	mov	r29, sp
     afa:	23 ef 09 00 	ld.w	8[sp], r29
     afe:	4c 1a       	add	12, sp
     b00:	7f 00       	jmp	[lp]

00000b02 <_get_lineno>:
     b02:	03 1e e8 ff 	addi	-24, sp, sp
     b06:	63 ef 15 00 	st.w	r29, 20[sp]
     b0a:	03 e8       	mov	sp, r29
     b0c:	7d 37 01 00 	st.w	r6, 0[r29]
     b10:	7d 07 0d 00 	st.w	r0, 12[r29]
     b14:	3d 57 01 00 	ld.w	0[r29], r10
     b18:	7d 57 09 00 	st.w	r10, 8[r29]
     b1c:	7d 07 0d 00 	st.w	r0, 12[r29]
     b20:	e5 0d       	br	b3c <_get_lineno+0x3a>
     b22:	2b 06 0c 74 	mov	0x6ff740c, r11
     b26:	ff 06 
     b28:	3d 57 0d 00 	ld.w	12[r29], r10
     b2c:	cb 51       	add	r11, r10
     b2e:	4a 07 00 00 	st.b	r0, 0[r10]
     b32:	3d 57 0d 00 	ld.w	12[r29], r10
     b36:	41 52       	add	1, r10
     b38:	7d 57 0d 00 	st.w	r10, 12[r29]
     b3c:	3d 57 0d 00 	ld.w	12[r29], r10
     b40:	67 52       	cmp	7, r10
     b42:	87 f5       	ble	b22 <_get_lineno+0x20>
     b44:	7d 07 0d 00 	st.w	r0, 12[r29]
     b48:	04 52       	mov	4, r10
     b4a:	7d 57 11 00 	st.w	r10, 16[r29]
     b4e:	f5 45       	br	bdc <_get_lineno+0xda>
     b50:	2b 06 44 1a 	mov	0x1a44, r11
     b54:	00 00 
     b56:	3d 57 11 00 	ld.w	16[r29], r10
     b5a:	c2 52       	shl	2, r10
     b5c:	cb 51       	add	r11, r10
     b5e:	2a 57 01 00 	ld.w	0[r10], r10
     b62:	3d 5f 09 00 	ld.w	8[r29], r11
     b66:	0b 60       	mov	r11, r12
     b68:	ea 67 fc 5a 	divq	r10, r12, r11
     b6c:	0c 50       	mov	r12, r10
     b6e:	7d 57 05 00 	st.w	r10, 4[r29]
     b72:	3d 57 0d 00 	ld.w	12[r29], r10
     b76:	60 52       	cmp	0, r10
     b78:	df 05       	bgt	b82 <_get_lineno+0x80>
     b7a:	3d 57 05 00 	ld.w	4[r29], r10
     b7e:	60 52       	cmp	0, r10
     b80:	f7 15       	ble	bae <_get_lineno+0xac>
     b82:	3d 57 05 00 	ld.w	4[r29], r10
     b86:	8a 00       	zxb	r10
     b88:	0a 56 30 00 	addi	48, r10, r10
     b8c:	8a 00       	zxb	r10
     b8e:	d8 52       	shl	24, r10
     b90:	0a 60       	mov	r10, r12
     b92:	b8 62       	sar	24, r12
     b94:	2b 06 0c 74 	mov	0x6ff740c, r11
     b98:	ff 06 
     b9a:	3d 57 0d 00 	ld.w	12[r29], r10
     b9e:	cb 51       	add	r11, r10
     ba0:	4a 67 00 00 	st.b	r12, 0[r10]
     ba4:	3d 57 0d 00 	ld.w	12[r29], r10
     ba8:	41 52       	add	1, r10
     baa:	7d 57 0d 00 	st.w	r10, 12[r29]
     bae:	2b 06 44 1a 	mov	0x1a44, r11
     bb2:	00 00 
     bb4:	3d 57 11 00 	ld.w	16[r29], r10
     bb8:	c2 52       	shl	2, r10
     bba:	cb 51       	add	r11, r10
     bbc:	2a 5f 01 00 	ld.w	0[r10], r11
     bc0:	3d 57 05 00 	ld.w	4[r29], r10
     bc4:	eb 57 20 02 	mul	r11, r10, r0
     bc8:	3d 5f 09 00 	ld.w	8[r29], r11
     bcc:	8b 51       	subr	r11, r10
     bce:	7d 57 09 00 	st.w	r10, 8[r29]
     bd2:	3d 57 11 00 	ld.w	16[r29], r10
     bd6:	5f 52       	add	-1, r10
     bd8:	7d 57 11 00 	st.w	r10, 16[r29]
     bdc:	3d 57 11 00 	ld.w	16[r29], r10
     be0:	60 52       	cmp	0, r10
     be2:	fe b5       	bge	b50 <_get_lineno+0x4e>
     be4:	2a 06 0c 74 	mov	0x6ff740c, r10
     be8:	ff 06 
     bea:	1d 18       	mov	r29, sp
     bec:	23 ef 15 00 	ld.w	20[sp], r29
     bf0:	03 1e 18 00 	addi	24, sp, sp
     bf4:	7f 00       	jmp	[lp]

00000bf6 <_test_print_line>:
     bf6:	50 1a       	add	-16, sp
     bf8:	63 ff 0d 00 	st.w	lp, 12[sp]
     bfc:	63 ef 09 00 	st.w	r29, 8[sp]
     c00:	03 e8       	mov	sp, r29
     c02:	7d 37 05 00 	st.w	r6, 4[r29]
     c06:	7d 3f 01 00 	st.w	r7, 0[r29]
     c0a:	3d 37 05 00 	ld.w	4[r29], r6
     c0e:	2a 06 aa 0a 	mov	0xaaa, r10
     c12:	00 00 
     c14:	80 ff 04 00 	jarl	c18 <_test_print_line+0x22>, lp
     c18:	44 fa       	add	4, lp
     c1a:	6a 00       	jmp	[r10]
     c1c:	3d 37 01 00 	ld.w	0[r29], r6
     c20:	2a 06 02 0b 	mov	0xb02, r10
     c24:	00 00 
     c26:	80 ff 04 00 	jarl	c2a <_test_print_line+0x34>, lp
     c2a:	44 fa       	add	4, lp
     c2c:	6a 00       	jmp	[r10]
     c2e:	0a 30       	mov	r10, r6
     c30:	2a 06 aa 0a 	mov	0xaaa, r10
     c34:	00 00 
     c36:	80 ff 04 00 	jarl	c3a <_test_print_line+0x44>, lp
     c3a:	44 fa       	add	4, lp
     c3c:	6a 00       	jmp	[r10]
     c3e:	20 56 07 fa 	movea	-1529, r0, r10
     c42:	0a 5a       	mov	10, r11
     c44:	4a 5f 00 00 	st.b	r11, 0[r10]
     c48:	1d 18       	mov	r29, sp
     c4a:	23 ff 0d 00 	ld.w	12[sp], lp
     c4e:	23 ef 09 00 	ld.w	8[sp], r29
     c52:	03 1e 10 00 	addi	16, sp, sp
     c56:	7f 00       	jmp	[lp]

00000c58 <_list_private_init>:
     c58:	58 1a       	add	-8, sp
     c5a:	63 ef 05 00 	st.w	r29, 4[sp]
     c5e:	03 e8       	mov	sp, r29
     c60:	2a 06 08 74 	mov	0x6ff7408, r10
     c64:	ff 06 
     c66:	2b 06 58 74 	mov	0x6ff7458, r11
     c6a:	ff 06 
     c6c:	6a 5f 01 00 	st.w	r11, 0[r10]
     c70:	7d 07 01 00 	st.w	r0, 0[r29]
     c74:	80 07 48 01 	jr	dbc <_list_private_init+0x164>
     c78:	3d 57 01 00 	ld.w	0[r29], r10
     c7c:	60 52       	cmp	0, r10
     c7e:	9a 2d       	bne	cd0 <_list_private_init+0x78>
     c80:	2a 06 08 74 	mov	0x6ff7408, r10
     c84:	ff 06 
     c86:	2a 5f 01 00 	ld.w	0[r10], r11
     c8a:	3d 57 01 00 	ld.w	0[r29], r10
     c8e:	c4 52       	shl	4, r10
     c90:	cb 51       	add	r11, r10
     c92:	2b 06 08 74 	mov	0x6ff7408, r11
     c96:	ff 06 
     c98:	2b 67 01 00 	ld.w	0[r11], r12
     c9c:	3d 5f 01 00 	ld.w	0[r29], r11
     ca0:	41 5a       	add	1, r11
     ca2:	c4 5a       	shl	4, r11
     ca4:	cc 59       	add	r12, r11
     ca6:	6a 5f 01 00 	st.w	r11, 0[r10]
     caa:	2a 06 08 74 	mov	0x6ff7408, r10
     cae:	ff 06 
     cb0:	2a 5f 01 00 	ld.w	0[r10], r11
     cb4:	3d 57 01 00 	ld.w	0[r29], r10
     cb8:	c4 52       	shl	4, r10
     cba:	cb 51       	add	r11, r10
     cbc:	2b 06 08 74 	mov	0x6ff7408, r11
     cc0:	ff 06 
     cc2:	2b 5f 01 00 	ld.w	0[r11], r11
     cc6:	0b 5e 20 00 	addi	32, r11, r11
     cca:	6a 5f 05 00 	st.w	r11, 4[r10]
     cce:	d5 55       	br	d78 <_list_private_init+0x120>
     cd0:	3d 57 01 00 	ld.w	0[r29], r10
     cd4:	62 52       	cmp	2, r10
     cd6:	fa 25       	bne	d24 <_list_private_init+0xcc>
     cd8:	2a 06 08 74 	mov	0x6ff7408, r10
     cdc:	ff 06 
     cde:	2a 5f 01 00 	ld.w	0[r10], r11
     ce2:	3d 57 01 00 	ld.w	0[r29], r10
     ce6:	c4 52       	shl	4, r10
     ce8:	cb 51       	add	r11, r10
     cea:	2b 06 08 74 	mov	0x6ff7408, r11
     cee:	ff 06 
     cf0:	2b 5f 01 00 	ld.w	0[r11], r11
     cf4:	6a 5f 01 00 	st.w	r11, 0[r10]
     cf8:	2a 06 08 74 	mov	0x6ff7408, r10
     cfc:	ff 06 
     cfe:	2a 5f 01 00 	ld.w	0[r10], r11
     d02:	3d 57 01 00 	ld.w	0[r29], r10
     d06:	c4 52       	shl	4, r10
     d08:	cb 51       	add	r11, r10
     d0a:	2b 06 08 74 	mov	0x6ff7408, r11
     d0e:	ff 06 
     d10:	2b 67 01 00 	ld.w	0[r11], r12
     d14:	3d 5f 01 00 	ld.w	0[r29], r11
     d18:	c4 5a       	shl	4, r11
     d1a:	50 5a       	add	-16, r11
     d1c:	cc 59       	add	r12, r11
     d1e:	6a 5f 05 00 	st.w	r11, 4[r10]
     d22:	b5 2d       	br	d78 <_list_private_init+0x120>
     d24:	2a 06 08 74 	mov	0x6ff7408, r10
     d28:	ff 06 
     d2a:	2a 5f 01 00 	ld.w	0[r10], r11
     d2e:	3d 57 01 00 	ld.w	0[r29], r10
     d32:	c4 52       	shl	4, r10
     d34:	cb 51       	add	r11, r10
     d36:	2b 06 08 74 	mov	0x6ff7408, r11
     d3a:	ff 06 
     d3c:	2b 67 01 00 	ld.w	0[r11], r12
     d40:	3d 5f 01 00 	ld.w	0[r29], r11
     d44:	41 5a       	add	1, r11
     d46:	c4 5a       	shl	4, r11
     d48:	cc 59       	add	r12, r11
     d4a:	6a 5f 01 00 	st.w	r11, 0[r10]
     d4e:	2a 06 08 74 	mov	0x6ff7408, r10
     d52:	ff 06 
     d54:	2a 5f 01 00 	ld.w	0[r10], r11
     d58:	3d 57 01 00 	ld.w	0[r29], r10
     d5c:	c4 52       	shl	4, r10
     d5e:	cb 51       	add	r11, r10
     d60:	2b 06 08 74 	mov	0x6ff7408, r11
     d64:	ff 06 
     d66:	2b 67 01 00 	ld.w	0[r11], r12
     d6a:	3d 5f 01 00 	ld.w	0[r29], r11
     d6e:	c4 5a       	shl	4, r11
     d70:	50 5a       	add	-16, r11
     d72:	cc 59       	add	r12, r11
     d74:	6a 5f 05 00 	st.w	r11, 4[r10]
     d78:	2a 06 08 74 	mov	0x6ff7408, r10
     d7c:	ff 06 
     d7e:	2a 5f 01 00 	ld.w	0[r10], r11
     d82:	3d 57 01 00 	ld.w	0[r29], r10
     d86:	c4 52       	shl	4, r10
     d88:	cb 51       	add	r11, r10
     d8a:	3d 5f 01 00 	ld.w	0[r29], r11
     d8e:	c4 5a       	shl	4, r11
     d90:	2c 06 24 74 	mov	0x6ff7424, r12
     d94:	ff 06 
     d96:	cc 59       	add	r12, r11
     d98:	6a 5f 09 00 	st.w	r11, 8[r10]
     d9c:	2a 06 08 74 	mov	0x6ff7408, r10
     da0:	ff 06 
     da2:	2a 5f 01 00 	ld.w	0[r10], r11
     da6:	3d 57 01 00 	ld.w	0[r29], r10
     daa:	c4 52       	shl	4, r10
     dac:	cb 51       	add	r11, r10
     dae:	6a 07 0d 00 	st.w	r0, 12[r10]
     db2:	3d 57 01 00 	ld.w	0[r29], r10
     db6:	41 52       	add	1, r10
     db8:	7d 57 01 00 	st.w	r10, 0[r29]
     dbc:	3d 57 01 00 	ld.w	0[r29], r10
     dc0:	62 52       	cmp	2, r10
     dc2:	bf 05       	bgt	dc8 <_list_private_init+0x170>
     dc4:	bf 07 b4 fe 	jr	c78 <_list_private_init+0x20>
     dc8:	2a 06 54 74 	mov	0x6ff7454, r10
     dcc:	ff 06 
     dce:	6a 07 01 00 	st.w	r0, 0[r10]
     dd2:	1d 18       	mov	r29, sp
     dd4:	23 ef 05 00 	ld.w	4[sp], r29
     dd8:	48 1a       	add	8, sp
     dda:	7f 00       	jmp	[lp]

00000ddc <_list_private_remove>:
     ddc:	03 1e e8 ff 	addi	-24, sp, sp
     de0:	63 ef 15 00 	st.w	r29, 20[sp]
     de4:	03 e8       	mov	sp, r29
     de6:	7d 37 05 00 	st.w	r6, 4[r29]
     dea:	7d 3f 01 00 	st.w	r7, 0[r29]
     dee:	3d 57 05 00 	ld.w	4[r29], r10
     df2:	2a 57 01 00 	ld.w	0[r10], r10
     df6:	60 52       	cmp	0, r10
     df8:	a2 45       	be	e7c <_list_private_remove+0xa0>
     dfa:	3d 57 01 00 	ld.w	0[r29], r10
     dfe:	7d 57 11 00 	st.w	r10, 16[r29]
     e02:	3d 57 11 00 	ld.w	16[r29], r10
     e06:	2a 57 01 00 	ld.w	0[r10], r10
     e0a:	7d 57 0d 00 	st.w	r10, 12[r29]
     e0e:	3d 57 11 00 	ld.w	16[r29], r10
     e12:	2a 57 05 00 	ld.w	4[r10], r10
     e16:	7d 57 09 00 	st.w	r10, 8[r29]
     e1a:	3d 57 09 00 	ld.w	8[r29], r10
     e1e:	3d 5f 0d 00 	ld.w	12[r29], r11
     e22:	6a 5f 01 00 	st.w	r11, 0[r10]
     e26:	3d 57 0d 00 	ld.w	12[r29], r10
     e2a:	3d 5f 09 00 	ld.w	8[r29], r11
     e2e:	6a 5f 05 00 	st.w	r11, 4[r10]
     e32:	3d 57 05 00 	ld.w	4[r29], r10
     e36:	2a 5f 01 00 	ld.w	0[r10], r11
     e3a:	3d 57 11 00 	ld.w	16[r29], r10
     e3e:	ea 59       	cmp	r10, r11
     e40:	aa 15       	bne	e64 <_list_private_remove+0x88>
     e42:	3d 5f 11 00 	ld.w	16[r29], r11
     e46:	3d 57 0d 00 	ld.w	12[r29], r10
     e4a:	ea 59       	cmp	r10, r11
     e4c:	82 0d       	be	e5c <_list_private_remove+0x80>
     e4e:	3d 57 05 00 	ld.w	4[r29], r10
     e52:	3d 5f 0d 00 	ld.w	12[r29], r11
     e56:	6a 5f 01 00 	st.w	r11, 0[r10]
     e5a:	d5 05       	br	e64 <_list_private_remove+0x88>
     e5c:	3d 57 05 00 	ld.w	4[r29], r10
     e60:	6a 07 01 00 	st.w	r0, 0[r10]
     e64:	3d 57 11 00 	ld.w	16[r29], r10
     e68:	3d 5f 11 00 	ld.w	16[r29], r11
     e6c:	6a 5f 01 00 	st.w	r11, 0[r10]
     e70:	3d 57 11 00 	ld.w	16[r29], r10
     e74:	3d 5f 11 00 	ld.w	16[r29], r11
     e78:	6a 5f 05 00 	st.w	r11, 4[r10]
     e7c:	00 00       	nop	
     e7e:	1d 18       	mov	r29, sp
     e80:	23 ef 15 00 	ld.w	20[sp], r29
     e84:	03 1e 18 00 	addi	24, sp, sp
     e88:	7f 00       	jmp	[lp]

00000e8a <_list_private_remove_head>:
     e8a:	50 1a       	add	-16, sp
     e8c:	63 ff 0d 00 	st.w	lp, 12[sp]
     e90:	63 ef 09 00 	st.w	r29, 8[sp]
     e94:	03 e8       	mov	sp, r29
     e96:	7d 37 01 00 	st.w	r6, 0[r29]
     e9a:	3d 57 01 00 	ld.w	0[r29], r10
     e9e:	2a 57 01 00 	ld.w	0[r10], r10
     ea2:	7d 57 05 00 	st.w	r10, 4[r29]
     ea6:	3d 57 05 00 	ld.w	4[r29], r10
     eaa:	60 52       	cmp	0, r10
     eac:	c2 0d       	be	ec4 <_list_private_remove_head+0x3a>
     eae:	3d 37 01 00 	ld.w	0[r29], r6
     eb2:	3d 3f 05 00 	ld.w	4[r29], r7
     eb6:	2a 06 dc 0d 	mov	0xddc, r10
     eba:	00 00 
     ebc:	80 ff 04 00 	jarl	ec0 <_list_private_remove_head+0x36>, lp
     ec0:	44 fa       	add	4, lp
     ec2:	6a 00       	jmp	[r10]
     ec4:	3d 57 05 00 	ld.w	4[r29], r10
     ec8:	1d 18       	mov	r29, sp
     eca:	23 ff 0d 00 	ld.w	12[sp], lp
     ece:	23 ef 09 00 	ld.w	8[sp], r29
     ed2:	03 1e 10 00 	addi	16, sp, sp
     ed6:	7f 00       	jmp	[lp]

00000ed8 <_list_private_add_next>:
     ed8:	50 1a       	add	-16, sp
     eda:	63 ef 0d 00 	st.w	r29, 12[sp]
     ede:	03 e8       	mov	sp, r29
     ee0:	7d 37 09 00 	st.w	r6, 8[r29]
     ee4:	7d 3f 05 00 	st.w	r7, 4[r29]
     ee8:	7d 47 01 00 	st.w	r8, 0[r29]
     eec:	3d 57 05 00 	ld.w	4[r29], r10
     ef0:	2a 5f 01 00 	ld.w	0[r10], r11
     ef4:	3d 57 01 00 	ld.w	0[r29], r10
     ef8:	6a 5f 01 00 	st.w	r11, 0[r10]
     efc:	3d 57 01 00 	ld.w	0[r29], r10
     f00:	3d 5f 05 00 	ld.w	4[r29], r11
     f04:	6a 5f 05 00 	st.w	r11, 4[r10]
     f08:	3d 57 05 00 	ld.w	4[r29], r10
     f0c:	2a 57 01 00 	ld.w	0[r10], r10
     f10:	3d 5f 01 00 	ld.w	0[r29], r11
     f14:	6a 5f 05 00 	st.w	r11, 4[r10]
     f18:	3d 57 05 00 	ld.w	4[r29], r10
     f1c:	3d 5f 01 00 	ld.w	0[r29], r11
     f20:	6a 5f 01 00 	st.w	r11, 0[r10]
     f24:	00 00       	nop	
     f26:	1d 18       	mov	r29, sp
     f28:	23 ef 0d 00 	ld.w	12[sp], r29
     f2c:	03 1e 10 00 	addi	16, sp, sp
     f30:	7f 00       	jmp	[lp]

00000f32 <_list_private_add_prev>:
     f32:	50 1a       	add	-16, sp
     f34:	63 ef 0d 00 	st.w	r29, 12[sp]
     f38:	03 e8       	mov	sp, r29
     f3a:	7d 37 09 00 	st.w	r6, 8[r29]
     f3e:	7d 3f 05 00 	st.w	r7, 4[r29]
     f42:	7d 47 01 00 	st.w	r8, 0[r29]
     f46:	3d 57 01 00 	ld.w	0[r29], r10
     f4a:	3d 5f 05 00 	ld.w	4[r29], r11
     f4e:	6a 5f 01 00 	st.w	r11, 0[r10]
     f52:	3d 57 05 00 	ld.w	4[r29], r10
     f56:	2a 5f 05 00 	ld.w	4[r10], r11
     f5a:	3d 57 01 00 	ld.w	0[r29], r10
     f5e:	6a 5f 05 00 	st.w	r11, 4[r10]
     f62:	3d 57 05 00 	ld.w	4[r29], r10
     f66:	2a 57 05 00 	ld.w	4[r10], r10
     f6a:	3d 5f 01 00 	ld.w	0[r29], r11
     f6e:	6a 5f 01 00 	st.w	r11, 0[r10]
     f72:	3d 57 05 00 	ld.w	4[r29], r10
     f76:	3d 5f 01 00 	ld.w	0[r29], r11
     f7a:	6a 5f 05 00 	st.w	r11, 4[r10]
     f7e:	00 00       	nop	
     f80:	1d 18       	mov	r29, sp
     f82:	23 ef 0d 00 	ld.w	12[sp], r29
     f86:	03 1e 10 00 	addi	16, sp, sp
     f8a:	7f 00       	jmp	[lp]

00000f8c <_list_private_add_head>:
     f8c:	50 1a       	add	-16, sp
     f8e:	63 ff 0d 00 	st.w	lp, 12[sp]
     f92:	63 ef 09 00 	st.w	r29, 8[sp]
     f96:	03 e8       	mov	sp, r29
     f98:	7d 37 05 00 	st.w	r6, 4[r29]
     f9c:	7d 3f 01 00 	st.w	r7, 0[r29]
     fa0:	3d 57 01 00 	ld.w	0[r29], r10
     fa4:	2a 5f 01 00 	ld.w	0[r10], r11
     fa8:	3d 57 01 00 	ld.w	0[r29], r10
     fac:	ea 59       	cmp	r10, r11
     fae:	ea 0d       	bne	fca <_list_private_add_head+0x3e>
     fb0:	26 06 58 1a 	mov	0x1a58, r6
     fb4:	00 00 
     fb6:	20 3e 87 00 	movea	135, r0, r7
     fba:	2a 06 f6 0b 	mov	0xbf6, r10
     fbe:	00 00 
     fc0:	80 ff 04 00 	jarl	fc4 <_list_private_add_head+0x38>, lp
     fc4:	44 fa       	add	4, lp
     fc6:	6a 00       	jmp	[r10]
     fc8:	d5 0d       	br	fe2 <_list_private_add_head+0x56>
     fca:	26 06 8f 1a 	mov	0x1a8f, r6
     fce:	00 00 
     fd0:	20 3e 87 00 	movea	135, r0, r7
     fd4:	2a 06 f6 0b 	mov	0xbf6, r10
     fd8:	00 00 
     fda:	80 ff 04 00 	jarl	fde <_list_private_add_head+0x52>, lp
     fde:	44 fa       	add	4, lp
     fe0:	6a 00       	jmp	[r10]
     fe2:	3d 57 01 00 	ld.w	0[r29], r10
     fe6:	2a 5f 05 00 	ld.w	4[r10], r11
     fea:	3d 57 01 00 	ld.w	0[r29], r10
     fee:	ea 59       	cmp	r10, r11
     ff0:	ea 0d       	bne	100c <_list_private_add_head+0x80>
     ff2:	26 06 c6 1a 	mov	0x1ac6, r6
     ff6:	00 00 
     ff8:	20 3e 88 00 	movea	136, r0, r7
     ffc:	2a 06 f6 0b 	mov	0xbf6, r10
    1000:	00 00 
    1002:	80 ff 04 00 	jarl	1006 <_list_private_add_head+0x7a>, lp
    1006:	44 fa       	add	4, lp
    1008:	6a 00       	jmp	[r10]
    100a:	d5 0d       	br	1024 <_list_private_add_head+0x98>
    100c:	26 06 fd 1a 	mov	0x1afd, r6
    1010:	00 00 
    1012:	20 3e 88 00 	movea	136, r0, r7
    1016:	2a 06 f6 0b 	mov	0xbf6, r10
    101a:	00 00 
    101c:	80 ff 04 00 	jarl	1020 <_list_private_add_head+0x94>, lp
    1020:	44 fa       	add	4, lp
    1022:	6a 00       	jmp	[r10]
    1024:	3d 57 05 00 	ld.w	4[r29], r10
    1028:	2a 57 01 00 	ld.w	0[r10], r10
    102c:	60 52       	cmp	0, r10
    102e:	92 15       	be	1050 <_list_private_add_head+0xc4>
    1030:	3d 57 05 00 	ld.w	4[r29], r10
    1034:	2a 57 01 00 	ld.w	0[r10], r10
    1038:	3d 37 05 00 	ld.w	4[r29], r6
    103c:	0a 38       	mov	r10, r7
    103e:	3d 47 01 00 	ld.w	0[r29], r8
    1042:	2a 06 32 0f 	mov	0xf32, r10
    1046:	00 00 
    1048:	80 ff 04 00 	jarl	104c <_list_private_add_head+0xc0>, lp
    104c:	44 fa       	add	4, lp
    104e:	6a 00       	jmp	[r10]
    1050:	3d 57 05 00 	ld.w	4[r29], r10
    1054:	3d 5f 01 00 	ld.w	0[r29], r11
    1058:	6a 5f 01 00 	st.w	r11, 0[r10]
    105c:	00 00       	nop	
    105e:	1d 18       	mov	r29, sp
    1060:	23 ff 0d 00 	ld.w	12[sp], lp
    1064:	23 ef 09 00 	ld.w	8[sp], r29
    1068:	03 1e 10 00 	addi	16, sp, sp
    106c:	7f 00       	jmp	[lp]

0000106e <_list_private_add_tail>:
    106e:	50 1a       	add	-16, sp
    1070:	63 ff 0d 00 	st.w	lp, 12[sp]
    1074:	63 ef 09 00 	st.w	r29, 8[sp]
    1078:	03 e8       	mov	sp, r29
    107a:	7d 37 05 00 	st.w	r6, 4[r29]
    107e:	7d 3f 01 00 	st.w	r7, 0[r29]
    1082:	3d 57 01 00 	ld.w	0[r29], r10
    1086:	2a 5f 01 00 	ld.w	0[r10], r11
    108a:	3d 57 01 00 	ld.w	0[r29], r10
    108e:	ea 59       	cmp	r10, r11
    1090:	ea 0d       	bne	10ac <_list_private_add_tail+0x3e>
    1092:	26 06 58 1a 	mov	0x1a58, r6
    1096:	00 00 
    1098:	20 3e 99 00 	movea	153, r0, r7
    109c:	2a 06 f6 0b 	mov	0xbf6, r10
    10a0:	00 00 
    10a2:	80 ff 04 00 	jarl	10a6 <_list_private_add_tail+0x38>, lp
    10a6:	44 fa       	add	4, lp
    10a8:	6a 00       	jmp	[r10]
    10aa:	d5 0d       	br	10c4 <_list_private_add_tail+0x56>
    10ac:	26 06 8f 1a 	mov	0x1a8f, r6
    10b0:	00 00 
    10b2:	20 3e 99 00 	movea	153, r0, r7
    10b6:	2a 06 f6 0b 	mov	0xbf6, r10
    10ba:	00 00 
    10bc:	80 ff 04 00 	jarl	10c0 <_list_private_add_tail+0x52>, lp
    10c0:	44 fa       	add	4, lp
    10c2:	6a 00       	jmp	[r10]
    10c4:	3d 57 01 00 	ld.w	0[r29], r10
    10c8:	2a 5f 05 00 	ld.w	4[r10], r11
    10cc:	3d 57 01 00 	ld.w	0[r29], r10
    10d0:	ea 59       	cmp	r10, r11
    10d2:	ea 0d       	bne	10ee <_list_private_add_tail+0x80>
    10d4:	26 06 c6 1a 	mov	0x1ac6, r6
    10d8:	00 00 
    10da:	20 3e 9a 00 	movea	154, r0, r7
    10de:	2a 06 f6 0b 	mov	0xbf6, r10
    10e2:	00 00 
    10e4:	80 ff 04 00 	jarl	10e8 <_list_private_add_tail+0x7a>, lp
    10e8:	44 fa       	add	4, lp
    10ea:	6a 00       	jmp	[r10]
    10ec:	d5 0d       	br	1106 <_list_private_add_tail+0x98>
    10ee:	26 06 fd 1a 	mov	0x1afd, r6
    10f2:	00 00 
    10f4:	20 3e 9a 00 	movea	154, r0, r7
    10f8:	2a 06 f6 0b 	mov	0xbf6, r10
    10fc:	00 00 
    10fe:	80 ff 04 00 	jarl	1102 <_list_private_add_tail+0x94>, lp
    1102:	44 fa       	add	4, lp
    1104:	6a 00       	jmp	[r10]
    1106:	3d 57 05 00 	ld.w	4[r29], r10
    110a:	2a 57 01 00 	ld.w	0[r10], r10
    110e:	60 52       	cmp	0, r10
    1110:	a2 15       	be	1134 <_list_private_add_tail+0xc6>
    1112:	3d 57 05 00 	ld.w	4[r29], r10
    1116:	2a 57 01 00 	ld.w	0[r10], r10
    111a:	3d 37 05 00 	ld.w	4[r29], r6
    111e:	0a 38       	mov	r10, r7
    1120:	3d 47 01 00 	ld.w	0[r29], r8
    1124:	2a 06 32 0f 	mov	0xf32, r10
    1128:	00 00 
    112a:	80 ff 04 00 	jarl	112e <_list_private_add_tail+0xc0>, lp
    112e:	44 fa       	add	4, lp
    1130:	6a 00       	jmp	[r10]
    1132:	f5 05       	br	1140 <_list_private_add_tail+0xd2>
    1134:	3d 57 05 00 	ld.w	4[r29], r10
    1138:	3d 5f 01 00 	ld.w	0[r29], r11
    113c:	6a 5f 01 00 	st.w	r11, 0[r10]
    1140:	00 00       	nop	
    1142:	1d 18       	mov	r29, sp
    1144:	23 ff 0d 00 	ld.w	12[sp], lp
    1148:	23 ef 09 00 	ld.w	8[sp], r29
    114c:	03 1e 10 00 	addi	16, sp, sp
    1150:	7f 00       	jmp	[lp]

00001152 <_GetlistEntry>:
    1152:	03 1e e4 ff 	addi	-28, sp, sp
    1156:	63 ef 19 00 	st.w	r29, 24[sp]
    115a:	03 e8       	mov	sp, r29
    115c:	7d 37 01 00 	st.w	r6, 0[r29]
    1160:	2a 06 24 74 	mov	0x6ff7424, r10
    1164:	ff 06 
    1166:	7d 57 15 00 	st.w	r10, 20[r29]
    116a:	2a 06 53 74 	mov	0x6ff7453, r10
    116e:	ff 06 
    1170:	7d 57 11 00 	st.w	r10, 16[r29]
    1174:	3d 5f 01 00 	ld.w	0[r29], r11
    1178:	3d 57 15 00 	ld.w	20[r29], r10
    117c:	ea 59       	cmp	r10, r11
    117e:	d1 45       	bl	1208 <_GetlistEntry+0xb6>
    1180:	3d 5f 01 00 	ld.w	0[r29], r11
    1184:	3d 57 11 00 	ld.w	16[r29], r10
    1188:	ea 59       	cmp	r10, r11
    118a:	fb 3d       	bh	1208 <_GetlistEntry+0xb6>
    118c:	3d 5f 01 00 	ld.w	0[r29], r11
    1190:	3d 57 15 00 	ld.w	20[r29], r10
    1194:	8b 51       	subr	r11, r10
    1196:	7d 57 0d 00 	st.w	r10, 12[r29]
    119a:	3d 57 0d 00 	ld.w	12[r29], r10
    119e:	84 52       	shr	4, r10
    11a0:	7d 57 09 00 	st.w	r10, 8[r29]
    11a4:	3d 57 0d 00 	ld.w	12[r29], r10
    11a8:	ca 56 0f 00 	andi	15, r10, r10
    11ac:	7d 57 05 00 	st.w	r10, 4[r29]
    11b0:	3d 57 05 00 	ld.w	4[r29], r10
    11b4:	6f 52       	cmp	15, r10
    11b6:	fb 25       	bh	1204 <_GetlistEntry+0xb2>
    11b8:	3d 57 09 00 	ld.w	8[r29], r10
    11bc:	60 52       	cmp	0, r10
    11be:	9a 0d       	bne	11d0 <_GetlistEntry+0x7e>
    11c0:	3d 57 05 00 	ld.w	4[r29], r10
    11c4:	6f 52       	cmp	15, r10
    11c6:	db 05       	bh	11d0 <_GetlistEntry+0x7e>
    11c8:	2a 06 58 74 	mov	0x6ff7458, r10
    11cc:	ff 06 
    11ce:	e5 1d       	br	120a <_GetlistEntry+0xb8>
    11d0:	3d 57 09 00 	ld.w	8[r29], r10
    11d4:	61 52       	cmp	1, r10
    11d6:	9a 0d       	bne	11e8 <_GetlistEntry+0x96>
    11d8:	3d 57 05 00 	ld.w	4[r29], r10
    11dc:	6f 52       	cmp	15, r10
    11de:	db 05       	bh	11e8 <_GetlistEntry+0x96>
    11e0:	2a 06 68 74 	mov	0x6ff7468, r10
    11e4:	ff 06 
    11e6:	a5 15       	br	120a <_GetlistEntry+0xb8>
    11e8:	3d 57 09 00 	ld.w	8[r29], r10
    11ec:	62 52       	cmp	2, r10
    11ee:	9a 0d       	bne	1200 <_GetlistEntry+0xae>
    11f0:	3d 57 05 00 	ld.w	4[r29], r10
    11f4:	6f 52       	cmp	15, r10
    11f6:	db 05       	bh	1200 <_GetlistEntry+0xae>
    11f8:	2a 06 78 74 	mov	0x6ff7478, r10
    11fc:	ff 06 
    11fe:	e5 05       	br	120a <_GetlistEntry+0xb8>
    1200:	00 52       	mov	0, r10
    1202:	c5 05       	br	120a <_GetlistEntry+0xb8>
    1204:	00 52       	mov	0, r10
    1206:	a5 05       	br	120a <_GetlistEntry+0xb8>
    1208:	00 52       	mov	0, r10
    120a:	1d 18       	mov	r29, sp
    120c:	23 ef 19 00 	ld.w	24[sp], r29
    1210:	03 1e 1c 00 	addi	28, sp, sp
    1214:	7f 00       	jmp	[lp]

00001216 <_test_print>:
    1216:	54 1a       	add	-12, sp
    1218:	63 ef 09 00 	st.w	r29, 8[sp]
    121c:	03 e8       	mov	sp, r29
    121e:	7d 37 01 00 	st.w	r6, 0[r29]
    1222:	7d 07 05 00 	st.w	r0, 4[r29]
    1226:	c5 15       	br	124e <_test_print+0x38>
    1228:	20 56 07 fa 	movea	-1529, r0, r10
    122c:	3d 5f 05 00 	ld.w	4[r29], r11
    1230:	3d 67 01 00 	ld.w	0[r29], r12
    1234:	cc 59       	add	r12, r11
    1236:	0b 5f 00 00 	ld.b	0[r11], r11
    123a:	d8 5a       	shl	24, r11
    123c:	b8 5a       	sar	24, r11
    123e:	8b 00       	zxb	r11
    1240:	4a 5f 00 00 	st.b	r11, 0[r10]
    1244:	3d 57 05 00 	ld.w	4[r29], r10
    1248:	41 52       	add	1, r10
    124a:	7d 57 05 00 	st.w	r10, 4[r29]
    124e:	3d 57 05 00 	ld.w	4[r29], r10
    1252:	3d 5f 01 00 	ld.w	0[r29], r11
    1256:	cb 51       	add	r11, r10
    1258:	0a 57 00 00 	ld.b	0[r10], r10
    125c:	d8 52       	shl	24, r10
    125e:	b8 52       	sar	24, r10
    1260:	60 52       	cmp	0, r10
    1262:	ba e5       	bne	1228 <_test_print+0x12>
    1264:	1d 18       	mov	r29, sp
    1266:	23 ef 09 00 	ld.w	8[sp], r29
    126a:	4c 1a       	add	12, sp
    126c:	7f 00       	jmp	[lp]

0000126e <_get_lineno>:
    126e:	03 1e e8 ff 	addi	-24, sp, sp
    1272:	63 ef 15 00 	st.w	r29, 20[sp]
    1276:	03 e8       	mov	sp, r29
    1278:	7d 37 01 00 	st.w	r6, 0[r29]
    127c:	7d 07 0d 00 	st.w	r0, 12[r29]
    1280:	3d 57 01 00 	ld.w	0[r29], r10
    1284:	7d 57 09 00 	st.w	r10, 8[r29]
    1288:	7d 07 0d 00 	st.w	r0, 12[r29]
    128c:	e5 0d       	br	12a8 <_get_lineno+0x3a>
    128e:	2b 06 14 74 	mov	0x6ff7414, r11
    1292:	ff 06 
    1294:	3d 57 0d 00 	ld.w	12[r29], r10
    1298:	cb 51       	add	r11, r10
    129a:	4a 07 00 00 	st.b	r0, 0[r10]
    129e:	3d 57 0d 00 	ld.w	12[r29], r10
    12a2:	41 52       	add	1, r10
    12a4:	7d 57 0d 00 	st.w	r10, 12[r29]
    12a8:	3d 57 0d 00 	ld.w	12[r29], r10
    12ac:	67 52       	cmp	7, r10
    12ae:	87 f5       	ble	128e <_get_lineno+0x20>
    12b0:	7d 07 0d 00 	st.w	r0, 12[r29]
    12b4:	04 52       	mov	4, r10
    12b6:	7d 57 11 00 	st.w	r10, 16[r29]
    12ba:	f5 45       	br	1348 <_get_lineno+0xda>
    12bc:	2b 06 34 1b 	mov	0x1b34, r11
    12c0:	00 00 
    12c2:	3d 57 11 00 	ld.w	16[r29], r10
    12c6:	c2 52       	shl	2, r10
    12c8:	cb 51       	add	r11, r10
    12ca:	2a 57 01 00 	ld.w	0[r10], r10
    12ce:	3d 5f 09 00 	ld.w	8[r29], r11
    12d2:	0b 60       	mov	r11, r12
    12d4:	ea 67 fc 5a 	divq	r10, r12, r11
    12d8:	0c 50       	mov	r12, r10
    12da:	7d 57 05 00 	st.w	r10, 4[r29]
    12de:	3d 57 0d 00 	ld.w	12[r29], r10
    12e2:	60 52       	cmp	0, r10
    12e4:	df 05       	bgt	12ee <_get_lineno+0x80>
    12e6:	3d 57 05 00 	ld.w	4[r29], r10
    12ea:	60 52       	cmp	0, r10
    12ec:	f7 15       	ble	131a <_get_lineno+0xac>
    12ee:	3d 57 05 00 	ld.w	4[r29], r10
    12f2:	8a 00       	zxb	r10
    12f4:	0a 56 30 00 	addi	48, r10, r10
    12f8:	8a 00       	zxb	r10
    12fa:	d8 52       	shl	24, r10
    12fc:	0a 60       	mov	r10, r12
    12fe:	b8 62       	sar	24, r12
    1300:	2b 06 14 74 	mov	0x6ff7414, r11
    1304:	ff 06 
    1306:	3d 57 0d 00 	ld.w	12[r29], r10
    130a:	cb 51       	add	r11, r10
    130c:	4a 67 00 00 	st.b	r12, 0[r10]
    1310:	3d 57 0d 00 	ld.w	12[r29], r10
    1314:	41 52       	add	1, r10
    1316:	7d 57 0d 00 	st.w	r10, 12[r29]
    131a:	2b 06 34 1b 	mov	0x1b34, r11
    131e:	00 00 
    1320:	3d 57 11 00 	ld.w	16[r29], r10
    1324:	c2 52       	shl	2, r10
    1326:	cb 51       	add	r11, r10
    1328:	2a 5f 01 00 	ld.w	0[r10], r11
    132c:	3d 57 05 00 	ld.w	4[r29], r10
    1330:	eb 57 20 02 	mul	r11, r10, r0
    1334:	3d 5f 09 00 	ld.w	8[r29], r11
    1338:	8b 51       	subr	r11, r10
    133a:	7d 57 09 00 	st.w	r10, 8[r29]
    133e:	3d 57 11 00 	ld.w	16[r29], r10
    1342:	5f 52       	add	-1, r10
    1344:	7d 57 11 00 	st.w	r10, 16[r29]
    1348:	3d 57 11 00 	ld.w	16[r29], r10
    134c:	60 52       	cmp	0, r10
    134e:	fe b5       	bge	12bc <_get_lineno+0x4e>
    1350:	2a 06 14 74 	mov	0x6ff7414, r10
    1354:	ff 06 
    1356:	1d 18       	mov	r29, sp
    1358:	23 ef 15 00 	ld.w	20[sp], r29
    135c:	03 1e 18 00 	addi	24, sp, sp
    1360:	7f 00       	jmp	[lp]

00001362 <_test_print_line>:
    1362:	50 1a       	add	-16, sp
    1364:	63 ff 0d 00 	st.w	lp, 12[sp]
    1368:	63 ef 09 00 	st.w	r29, 8[sp]
    136c:	03 e8       	mov	sp, r29
    136e:	7d 37 05 00 	st.w	r6, 4[r29]
    1372:	7d 3f 01 00 	st.w	r7, 0[r29]
    1376:	3d 37 05 00 	ld.w	4[r29], r6
    137a:	2a 06 16 12 	mov	0x1216, r10
    137e:	00 00 
    1380:	80 ff 04 00 	jarl	1384 <_test_print_line+0x22>, lp
    1384:	44 fa       	add	4, lp
    1386:	6a 00       	jmp	[r10]
    1388:	3d 37 01 00 	ld.w	0[r29], r6
    138c:	2a 06 6e 12 	mov	0x126e, r10
    1390:	00 00 
    1392:	80 ff 04 00 	jarl	1396 <_test_print_line+0x34>, lp
    1396:	44 fa       	add	4, lp
    1398:	6a 00       	jmp	[r10]
    139a:	0a 30       	mov	r10, r6
    139c:	2a 06 16 12 	mov	0x1216, r10
    13a0:	00 00 
    13a2:	80 ff 04 00 	jarl	13a6 <_test_print_line+0x44>, lp
    13a6:	44 fa       	add	4, lp
    13a8:	6a 00       	jmp	[r10]
    13aa:	20 56 07 fa 	movea	-1529, r0, r10
    13ae:	0a 5a       	mov	10, r11
    13b0:	4a 5f 00 00 	st.b	r11, 0[r10]
    13b4:	1d 18       	mov	r29, sp
    13b6:	23 ff 0d 00 	ld.w	12[sp], lp
    13ba:	23 ef 09 00 	ld.w	8[sp], r29
    13be:	03 1e 10 00 	addi	16, sp, sp
    13c2:	7f 00       	jmp	[lp]

000013c4 <_list_test_ERR_1>:
    13c4:	50 1a       	add	-16, sp
    13c6:	63 ff 0d 00 	st.w	lp, 12[sp]
    13ca:	63 ef 09 00 	st.w	r29, 8[sp]
    13ce:	03 e8       	mov	sp, r29
    13d0:	2a 06 b2 09 	mov	0x9b2, r10
    13d4:	00 00 
    13d6:	80 ff 04 00 	jarl	13da <_list_test_ERR_1+0x16>, lp
    13da:	44 fa       	add	4, lp
    13dc:	6a 00       	jmp	[r10]
    13de:	7d 57 05 00 	st.w	r10, 4[r29]
    13e2:	3d 37 05 00 	ld.w	4[r29], r6
    13e6:	2a 06 22 0a 	mov	0xa22, r10
    13ea:	00 00 
    13ec:	80 ff 04 00 	jarl	13f0 <_list_test_ERR_1+0x2c>, lp
    13f0:	44 fa       	add	4, lp
    13f2:	6a 00       	jmp	[r10]
    13f4:	7d 57 01 00 	st.w	r10, 0[r29]
    13f8:	3d 57 05 00 	ld.w	4[r29], r10
    13fc:	60 52       	cmp	0, r10
    13fe:	da 0d       	bne	1418 <_list_test_ERR_1+0x54>
    1400:	26 06 48 1b 	mov	0x1b48, r6
    1404:	00 00 
    1406:	0b 3a       	mov	11, r7
    1408:	2a 06 62 13 	mov	0x1362, r10
    140c:	00 00 
    140e:	80 ff 04 00 	jarl	1412 <_list_test_ERR_1+0x4e>, lp
    1412:	44 fa       	add	4, lp
    1414:	6a 00       	jmp	[r10]
    1416:	c5 0d       	br	142e <_list_test_ERR_1+0x6a>
    1418:	26 06 76 1b 	mov	0x1b76, r6
    141c:	00 00 
    141e:	0b 3a       	mov	11, r7
    1420:	2a 06 62 13 	mov	0x1362, r10
    1424:	00 00 
    1426:	80 ff 04 00 	jarl	142a <_list_test_ERR_1+0x66>, lp
    142a:	44 fa       	add	4, lp
    142c:	6a 00       	jmp	[r10]
    142e:	3d 57 01 00 	ld.w	0[r29], r10
    1432:	7f 52       	cmp	-1, r10
    1434:	da 0d       	bne	144e <_list_test_ERR_1+0x8a>
    1436:	26 06 a4 1b 	mov	0x1ba4, r6
    143a:	00 00 
    143c:	0c 3a       	mov	12, r7
    143e:	2a 06 62 13 	mov	0x1362, r10
    1442:	00 00 
    1444:	80 ff 04 00 	jarl	1448 <_list_test_ERR_1+0x84>, lp
    1448:	44 fa       	add	4, lp
    144a:	6a 00       	jmp	[r10]
    144c:	c5 0d       	br	1464 <_list_test_ERR_1+0xa0>
    144e:	26 06 cb 1b 	mov	0x1bcb, r6
    1452:	00 00 
    1454:	0c 3a       	mov	12, r7
    1456:	2a 06 62 13 	mov	0x1362, r10
    145a:	00 00 
    145c:	80 ff 04 00 	jarl	1460 <_list_test_ERR_1+0x9c>, lp
    1460:	44 fa       	add	4, lp
    1462:	6a 00       	jmp	[r10]
    1464:	00 00       	nop	
    1466:	1d 18       	mov	r29, sp
    1468:	23 ff 0d 00 	ld.w	12[sp], lp
    146c:	23 ef 09 00 	ld.w	8[sp], r29
    1470:	03 1e 10 00 	addi	16, sp, sp
    1474:	7f 00       	jmp	[lp]

00001476 <_list_test_ERR_2>:
    1476:	50 1a       	add	-16, sp
    1478:	63 ff 0d 00 	st.w	lp, 12[sp]
    147c:	63 ef 09 00 	st.w	r29, 8[sp]
    1480:	03 e8       	mov	sp, r29
    1482:	1d 50       	mov	r29, r10
    1484:	7d 57 05 00 	st.w	r10, 4[r29]
    1488:	3d 37 05 00 	ld.w	4[r29], r6
    148c:	2a 06 22 0a 	mov	0xa22, r10
    1490:	00 00 
    1492:	80 ff 04 00 	jarl	1496 <_list_test_ERR_2+0x20>, lp
    1496:	44 fa       	add	4, lp
    1498:	6a 00       	jmp	[r10]
    149a:	7d 57 01 00 	st.w	r10, 0[r29]
    149e:	3d 57 01 00 	ld.w	0[r29], r10
    14a2:	7f 52       	cmp	-1, r10
    14a4:	ea 0d       	bne	14c0 <_list_test_ERR_2+0x4a>
    14a6:	26 06 a4 1b 	mov	0x1ba4, r6
    14aa:	00 00 
    14ac:	20 3e 17 00 	movea	23, r0, r7
    14b0:	2a 06 62 13 	mov	0x1362, r10
    14b4:	00 00 
    14b6:	80 ff 04 00 	jarl	14ba <_list_test_ERR_2+0x44>, lp
    14ba:	44 fa       	add	4, lp
    14bc:	6a 00       	jmp	[r10]
    14be:	d5 0d       	br	14d8 <_list_test_ERR_2+0x62>
    14c0:	26 06 cb 1b 	mov	0x1bcb, r6
    14c4:	00 00 
    14c6:	20 3e 17 00 	movea	23, r0, r7
    14ca:	2a 06 62 13 	mov	0x1362, r10
    14ce:	00 00 
    14d0:	80 ff 04 00 	jarl	14d4 <_list_test_ERR_2+0x5e>, lp
    14d4:	44 fa       	add	4, lp
    14d6:	6a 00       	jmp	[r10]
    14d8:	00 00       	nop	
    14da:	1d 18       	mov	r29, sp
    14dc:	23 ff 0d 00 	ld.w	12[sp], lp
    14e0:	23 ef 09 00 	ld.w	8[sp], r29
    14e4:	03 1e 10 00 	addi	16, sp, sp
    14e8:	7f 00       	jmp	[lp]

000014ea <_list_test_ERR_3>:
    14ea:	50 1a       	add	-16, sp
    14ec:	63 ff 0d 00 	st.w	lp, 12[sp]
    14f0:	63 ef 09 00 	st.w	r29, 8[sp]
    14f4:	03 e8       	mov	sp, r29
    14f6:	2a 06 8a 09 	mov	0x98a, r10
    14fa:	00 00 
    14fc:	80 ff 04 00 	jarl	1500 <_list_test_ERR_3+0x16>, lp
    1500:	44 fa       	add	4, lp
    1502:	6a 00       	jmp	[r10]
    1504:	2a 06 b2 09 	mov	0x9b2, r10
    1508:	00 00 
    150a:	80 ff 04 00 	jarl	150e <_list_test_ERR_3+0x24>, lp
    150e:	44 fa       	add	4, lp
    1510:	6a 00       	jmp	[r10]
    1512:	7d 57 05 00 	st.w	r10, 4[r29]
    1516:	3d 57 05 00 	ld.w	4[r29], r10
    151a:	60 52       	cmp	0, r10
    151c:	e2 0d       	be	1538 <_list_test_ERR_3+0x4e>
    151e:	26 06 f2 1b 	mov	0x1bf2, r6
    1522:	00 00 
    1524:	20 3e 22 00 	movea	34, r0, r7
    1528:	2a 06 62 13 	mov	0x1362, r10
    152c:	00 00 
    152e:	80 ff 04 00 	jarl	1532 <_list_test_ERR_3+0x48>, lp
    1532:	44 fa       	add	4, lp
    1534:	6a 00       	jmp	[r10]
    1536:	d5 0d       	br	1550 <_list_test_ERR_3+0x66>
    1538:	26 06 20 1c 	mov	0x1c20, r6
    153c:	00 00 
    153e:	20 3e 22 00 	movea	34, r0, r7
    1542:	2a 06 62 13 	mov	0x1362, r10
    1546:	00 00 
    1548:	80 ff 04 00 	jarl	154c <_list_test_ERR_3+0x62>, lp
    154c:	44 fa       	add	4, lp
    154e:	6a 00       	jmp	[r10]
    1550:	3d 57 05 00 	ld.w	4[r29], r10
    1554:	41 52       	add	1, r10
    1556:	0a 30       	mov	r10, r6
    1558:	2a 06 22 0a 	mov	0xa22, r10
    155c:	00 00 
    155e:	80 ff 04 00 	jarl	1562 <_list_test_ERR_3+0x78>, lp
    1562:	44 fa       	add	4, lp
    1564:	6a 00       	jmp	[r10]
    1566:	7d 57 01 00 	st.w	r10, 0[r29]
    156a:	3d 57 01 00 	ld.w	0[r29], r10
    156e:	7f 52       	cmp	-1, r10
    1570:	ea 0d       	bne	158c <_list_test_ERR_3+0xa2>
    1572:	26 06 a4 1b 	mov	0x1ba4, r6
    1576:	00 00 
    1578:	20 3e 25 00 	movea	37, r0, r7
    157c:	2a 06 62 13 	mov	0x1362, r10
    1580:	00 00 
    1582:	80 ff 04 00 	jarl	1586 <_list_test_ERR_3+0x9c>, lp
    1586:	44 fa       	add	4, lp
    1588:	6a 00       	jmp	[r10]
    158a:	d5 0d       	br	15a4 <_list_test_ERR_3+0xba>
    158c:	26 06 cb 1b 	mov	0x1bcb, r6
    1590:	00 00 
    1592:	20 3e 25 00 	movea	37, r0, r7
    1596:	2a 06 62 13 	mov	0x1362, r10
    159a:	00 00 
    159c:	80 ff 04 00 	jarl	15a0 <_list_test_ERR_3+0xb6>, lp
    15a0:	44 fa       	add	4, lp
    15a2:	6a 00       	jmp	[r10]
    15a4:	3d 57 05 00 	ld.w	4[r29], r10
    15a8:	0a 56 00 fc 	addi	-1024, r10, r10
    15ac:	0a 30       	mov	r10, r6
    15ae:	2a 06 22 0a 	mov	0xa22, r10
    15b2:	00 00 
    15b4:	80 ff 04 00 	jarl	15b8 <_list_test_ERR_3+0xce>, lp
    15b8:	44 fa       	add	4, lp
    15ba:	6a 00       	jmp	[r10]
    15bc:	7d 57 01 00 	st.w	r10, 0[r29]
    15c0:	3d 57 01 00 	ld.w	0[r29], r10
    15c4:	7f 52       	cmp	-1, r10
    15c6:	ea 0d       	bne	15e2 <_list_test_ERR_3+0xf8>
    15c8:	26 06 a4 1b 	mov	0x1ba4, r6
    15cc:	00 00 
    15ce:	20 3e 28 00 	movea	40, r0, r7
    15d2:	2a 06 62 13 	mov	0x1362, r10
    15d6:	00 00 
    15d8:	80 ff 04 00 	jarl	15dc <_list_test_ERR_3+0xf2>, lp
    15dc:	44 fa       	add	4, lp
    15de:	6a 00       	jmp	[r10]
    15e0:	d5 0d       	br	15fa <_list_test_ERR_3+0x110>
    15e2:	26 06 cb 1b 	mov	0x1bcb, r6
    15e6:	00 00 
    15e8:	20 3e 28 00 	movea	40, r0, r7
    15ec:	2a 06 62 13 	mov	0x1362, r10
    15f0:	00 00 
    15f2:	80 ff 04 00 	jarl	15f6 <_list_test_ERR_3+0x10c>, lp
    15f6:	44 fa       	add	4, lp
    15f8:	6a 00       	jmp	[r10]
    15fa:	3d 57 05 00 	ld.w	4[r29], r10
    15fe:	0a 56 00 04 	addi	1024, r10, r10
    1602:	0a 30       	mov	r10, r6
    1604:	2a 06 22 0a 	mov	0xa22, r10
    1608:	00 00 
    160a:	80 ff 04 00 	jarl	160e <_list_test_ERR_3+0x124>, lp
    160e:	44 fa       	add	4, lp
    1610:	6a 00       	jmp	[r10]
    1612:	7d 57 01 00 	st.w	r10, 0[r29]
    1616:	3d 57 01 00 	ld.w	0[r29], r10
    161a:	7f 52       	cmp	-1, r10
    161c:	ea 0d       	bne	1638 <_list_test_ERR_3+0x14e>
    161e:	26 06 a4 1b 	mov	0x1ba4, r6
    1622:	00 00 
    1624:	20 3e 2a 00 	movea	42, r0, r7
    1628:	2a 06 62 13 	mov	0x1362, r10
    162c:	00 00 
    162e:	80 ff 04 00 	jarl	1632 <_list_test_ERR_3+0x148>, lp
    1632:	44 fa       	add	4, lp
    1634:	6a 00       	jmp	[r10]
    1636:	d5 0d       	br	1650 <_list_test_ERR_3+0x166>
    1638:	26 06 cb 1b 	mov	0x1bcb, r6
    163c:	00 00 
    163e:	20 3e 2a 00 	movea	42, r0, r7
    1642:	2a 06 62 13 	mov	0x1362, r10
    1646:	00 00 
    1648:	80 ff 04 00 	jarl	164c <_list_test_ERR_3+0x162>, lp
    164c:	44 fa       	add	4, lp
    164e:	6a 00       	jmp	[r10]
    1650:	00 00       	nop	
    1652:	1d 18       	mov	r29, sp
    1654:	23 ff 0d 00 	ld.w	12[sp], lp
    1658:	23 ef 09 00 	ld.w	8[sp], r29
    165c:	03 1e 10 00 	addi	16, sp, sp
    1660:	7f 00       	jmp	[lp]

00001662 <_list_test_OK_1>:
    1662:	54 1a       	add	-12, sp
    1664:	63 ff 09 00 	st.w	lp, 8[sp]
    1668:	63 ef 05 00 	st.w	r29, 4[sp]
    166c:	03 e8       	mov	sp, r29
    166e:	2a 06 8a 09 	mov	0x98a, r10
    1672:	00 00 
    1674:	80 ff 04 00 	jarl	1678 <_list_test_OK_1+0x16>, lp
    1678:	44 fa       	add	4, lp
    167a:	6a 00       	jmp	[r10]
    167c:	2a 06 b2 09 	mov	0x9b2, r10
    1680:	00 00 
    1682:	80 ff 04 00 	jarl	1686 <_list_test_OK_1+0x24>, lp
    1686:	44 fa       	add	4, lp
    1688:	6a 00       	jmp	[r10]
    168a:	7d 57 01 00 	st.w	r10, 0[r29]
    168e:	3d 57 01 00 	ld.w	0[r29], r10
    1692:	60 52       	cmp	0, r10
    1694:	e2 0d       	be	16b0 <_list_test_OK_1+0x4e>
    1696:	26 06 f2 1b 	mov	0x1bf2, r6
    169a:	00 00 
    169c:	20 3e 34 00 	movea	52, r0, r7
    16a0:	2a 06 62 13 	mov	0x1362, r10
    16a4:	00 00 
    16a6:	80 ff 04 00 	jarl	16aa <_list_test_OK_1+0x48>, lp
    16aa:	44 fa       	add	4, lp
    16ac:	6a 00       	jmp	[r10]
    16ae:	d5 0d       	br	16c8 <_list_test_OK_1+0x66>
    16b0:	26 06 20 1c 	mov	0x1c20, r6
    16b4:	00 00 
    16b6:	20 3e 34 00 	movea	52, r0, r7
    16ba:	2a 06 62 13 	mov	0x1362, r10
    16be:	00 00 
    16c0:	80 ff 04 00 	jarl	16c4 <_list_test_OK_1+0x62>, lp
    16c4:	44 fa       	add	4, lp
    16c6:	6a 00       	jmp	[r10]
    16c8:	00 00       	nop	
    16ca:	1d 18       	mov	r29, sp
    16cc:	23 ff 09 00 	ld.w	8[sp], lp
    16d0:	23 ef 05 00 	ld.w	4[sp], r29
    16d4:	4c 1a       	add	12, sp
    16d6:	7f 00       	jmp	[lp]

000016d8 <_list_test_OK_2>:
    16d8:	50 1a       	add	-16, sp
    16da:	63 ff 0d 00 	st.w	lp, 12[sp]
    16de:	63 ef 09 00 	st.w	r29, 8[sp]
    16e2:	03 e8       	mov	sp, r29
    16e4:	2a 06 8a 09 	mov	0x98a, r10
    16e8:	00 00 
    16ea:	80 ff 04 00 	jarl	16ee <_list_test_OK_2+0x16>, lp
    16ee:	44 fa       	add	4, lp
    16f0:	6a 00       	jmp	[r10]
    16f2:	2a 06 b2 09 	mov	0x9b2, r10
    16f6:	00 00 
    16f8:	80 ff 04 00 	jarl	16fc <_list_test_OK_2+0x24>, lp
    16fc:	44 fa       	add	4, lp
    16fe:	6a 00       	jmp	[r10]
    1700:	7d 57 05 00 	st.w	r10, 4[r29]
    1704:	3d 57 05 00 	ld.w	4[r29], r10
    1708:	60 52       	cmp	0, r10
    170a:	e2 0d       	be	1726 <_list_test_OK_2+0x4e>
    170c:	26 06 f2 1b 	mov	0x1bf2, r6
    1710:	00 00 
    1712:	20 3e 3f 00 	movea	63, r0, r7
    1716:	2a 06 62 13 	mov	0x1362, r10
    171a:	00 00 
    171c:	80 ff 04 00 	jarl	1720 <_list_test_OK_2+0x48>, lp
    1720:	44 fa       	add	4, lp
    1722:	6a 00       	jmp	[r10]
    1724:	d5 0d       	br	173e <_list_test_OK_2+0x66>
    1726:	26 06 20 1c 	mov	0x1c20, r6
    172a:	00 00 
    172c:	20 3e 3f 00 	movea	63, r0, r7
    1730:	2a 06 62 13 	mov	0x1362, r10
    1734:	00 00 
    1736:	80 ff 04 00 	jarl	173a <_list_test_OK_2+0x62>, lp
    173a:	44 fa       	add	4, lp
    173c:	6a 00       	jmp	[r10]
    173e:	3d 37 05 00 	ld.w	4[r29], r6
    1742:	2a 06 22 0a 	mov	0xa22, r10
    1746:	00 00 
    1748:	80 ff 04 00 	jarl	174c <_list_test_OK_2+0x74>, lp
    174c:	44 fa       	add	4, lp
    174e:	6a 00       	jmp	[r10]
    1750:	7d 57 01 00 	st.w	r10, 0[r29]
    1754:	3d 57 01 00 	ld.w	0[r29], r10
    1758:	60 52       	cmp	0, r10
    175a:	ea 0d       	bne	1776 <_list_test_OK_2+0x9e>
    175c:	26 06 4e 1c 	mov	0x1c4e, r6
    1760:	00 00 
    1762:	20 3e 42 00 	movea	66, r0, r7
    1766:	2a 06 62 13 	mov	0x1362, r10
    176a:	00 00 
    176c:	80 ff 04 00 	jarl	1770 <_list_test_OK_2+0x98>, lp
    1770:	44 fa       	add	4, lp
    1772:	6a 00       	jmp	[r10]
    1774:	d5 0d       	br	178e <_list_test_OK_2+0xb6>
    1776:	26 06 74 1c 	mov	0x1c74, r6
    177a:	00 00 
    177c:	20 3e 42 00 	movea	66, r0, r7
    1780:	2a 06 62 13 	mov	0x1362, r10
    1784:	00 00 
    1786:	80 ff 04 00 	jarl	178a <_list_test_OK_2+0xb2>, lp
    178a:	44 fa       	add	4, lp
    178c:	6a 00       	jmp	[r10]
    178e:	00 00       	nop	
    1790:	1d 18       	mov	r29, sp
    1792:	23 ff 0d 00 	ld.w	12[sp], lp
    1796:	23 ef 09 00 	ld.w	8[sp], r29
    179a:	03 1e 10 00 	addi	16, sp, sp
    179e:	7f 00       	jmp	[lp]

000017a0 <_list_test_OK_3>:
    17a0:	03 1e e0 ff 	addi	-32, sp, sp
    17a4:	63 ff 1d 00 	st.w	lp, 28[sp]
    17a8:	63 ef 19 00 	st.w	r29, 24[sp]
    17ac:	03 e8       	mov	sp, r29
    17ae:	2a 06 8a 09 	mov	0x98a, r10
    17b2:	00 00 
    17b4:	80 ff 04 00 	jarl	17b8 <_list_test_OK_3+0x18>, lp
    17b8:	44 fa       	add	4, lp
    17ba:	6a 00       	jmp	[r10]
    17bc:	7d 07 15 00 	st.w	r0, 20[r29]
    17c0:	f5 3d       	br	183e <_list_test_OK_3+0x9e>
    17c2:	2a 06 b2 09 	mov	0x9b2, r10
    17c6:	00 00 
    17c8:	80 ff 04 00 	jarl	17cc <_list_test_OK_3+0x2c>, lp
    17cc:	44 fa       	add	4, lp
    17ce:	6a 00       	jmp	[r10]
    17d0:	0a 58       	mov	r10, r11
    17d2:	3d 57 15 00 	ld.w	20[r29], r10
    17d6:	c2 52       	shl	2, r10
    17d8:	20 66 18 00 	movea	24, r0, r12
    17dc:	dd 61       	add	r29, r12
    17de:	cc 51       	add	r12, r10
    17e0:	0a 56 e8 ff 	addi	-24, r10, r10
    17e4:	6a 5f 01 00 	st.w	r11, 0[r10]
    17e8:	3d 57 15 00 	ld.w	20[r29], r10
    17ec:	c2 52       	shl	2, r10
    17ee:	20 5e 18 00 	movea	24, r0, r11
    17f2:	dd 59       	add	r29, r11
    17f4:	cb 51       	add	r11, r10
    17f6:	0a 56 e8 ff 	addi	-24, r10, r10
    17fa:	2a 57 01 00 	ld.w	0[r10], r10
    17fe:	60 52       	cmp	0, r10
    1800:	e2 0d       	be	181c <_list_test_OK_3+0x7c>
    1802:	26 06 9a 1c 	mov	0x1c9a, r6
    1806:	00 00 
    1808:	20 3e 51 00 	movea	81, r0, r7
    180c:	2a 06 62 13 	mov	0x1362, r10
    1810:	00 00 
    1812:	80 ff 04 00 	jarl	1816 <_list_test_OK_3+0x76>, lp
    1816:	44 fa       	add	4, lp
    1818:	6a 00       	jmp	[r10]
    181a:	d5 0d       	br	1834 <_list_test_OK_3+0x94>
    181c:	26 06 cb 1c 	mov	0x1ccb, r6
    1820:	00 00 
    1822:	20 3e 51 00 	movea	81, r0, r7
    1826:	2a 06 62 13 	mov	0x1362, r10
    182a:	00 00 
    182c:	80 ff 04 00 	jarl	1830 <_list_test_OK_3+0x90>, lp
    1830:	44 fa       	add	4, lp
    1832:	6a 00       	jmp	[r10]
    1834:	3d 57 15 00 	ld.w	20[r29], r10
    1838:	41 52       	add	1, r10
    183a:	7d 57 15 00 	st.w	r10, 20[r29]
    183e:	3d 57 15 00 	ld.w	20[r29], r10
    1842:	62 52       	cmp	2, r10
    1844:	f7 bd       	ble	17c2 <_list_test_OK_3+0x22>
    1846:	2a 06 b2 09 	mov	0x9b2, r10
    184a:	00 00 
    184c:	80 ff 04 00 	jarl	1850 <_list_test_OK_3+0xb0>, lp
    1850:	44 fa       	add	4, lp
    1852:	6a 00       	jmp	[r10]
    1854:	7d 57 11 00 	st.w	r10, 16[r29]
    1858:	3d 57 11 00 	ld.w	16[r29], r10
    185c:	60 52       	cmp	0, r10
    185e:	ea 0d       	bne	187a <_list_test_OK_3+0xda>
    1860:	26 06 fc 1c 	mov	0x1cfc, r6
    1864:	00 00 
    1866:	20 3e 55 00 	movea	85, r0, r7
    186a:	2a 06 62 13 	mov	0x1362, r10
    186e:	00 00 
    1870:	80 ff 04 00 	jarl	1874 <_list_test_OK_3+0xd4>, lp
    1874:	44 fa       	add	4, lp
    1876:	6a 00       	jmp	[r10]
    1878:	d5 0d       	br	1892 <_list_test_OK_3+0xf2>
    187a:	26 06 2e 1d 	mov	0x1d2e, r6
    187e:	00 00 
    1880:	20 3e 55 00 	movea	85, r0, r7
    1884:	2a 06 62 13 	mov	0x1362, r10
    1888:	00 00 
    188a:	80 ff 04 00 	jarl	188e <_list_test_OK_3+0xee>, lp
    188e:	44 fa       	add	4, lp
    1890:	6a 00       	jmp	[r10]
    1892:	7d 07 15 00 	st.w	r0, 20[r29]
    1896:	85 3d       	br	1906 <_list_test_OK_3+0x166>
    1898:	3d 57 15 00 	ld.w	20[r29], r10
    189c:	c2 52       	shl	2, r10
    189e:	20 66 18 00 	movea	24, r0, r12
    18a2:	dd 61       	add	r29, r12
    18a4:	cc 51       	add	r12, r10
    18a6:	0a 56 e8 ff 	addi	-24, r10, r10
    18aa:	2a 57 01 00 	ld.w	0[r10], r10
    18ae:	0a 30       	mov	r10, r6
    18b0:	2a 06 22 0a 	mov	0xa22, r10
    18b4:	00 00 
    18b6:	80 ff 04 00 	jarl	18ba <_list_test_OK_3+0x11a>, lp
    18ba:	44 fa       	add	4, lp
    18bc:	6a 00       	jmp	[r10]
    18be:	7d 57 0d 00 	st.w	r10, 12[r29]
    18c2:	3d 57 0d 00 	ld.w	12[r29], r10
    18c6:	60 52       	cmp	0, r10
    18c8:	ea 0d       	bne	18e4 <_list_test_OK_3+0x144>
    18ca:	26 06 4e 1c 	mov	0x1c4e, r6
    18ce:	00 00 
    18d0:	20 3e 59 00 	movea	89, r0, r7
    18d4:	2a 06 62 13 	mov	0x1362, r10
    18d8:	00 00 
    18da:	80 ff 04 00 	jarl	18de <_list_test_OK_3+0x13e>, lp
    18de:	44 fa       	add	4, lp
    18e0:	6a 00       	jmp	[r10]
    18e2:	d5 0d       	br	18fc <_list_test_OK_3+0x15c>
    18e4:	26 06 74 1c 	mov	0x1c74, r6
    18e8:	00 00 
    18ea:	20 3e 59 00 	movea	89, r0, r7
    18ee:	2a 06 62 13 	mov	0x1362, r10
    18f2:	00 00 
    18f4:	80 ff 04 00 	jarl	18f8 <_list_test_OK_3+0x158>, lp
    18f8:	44 fa       	add	4, lp
    18fa:	6a 00       	jmp	[r10]
    18fc:	3d 57 15 00 	ld.w	20[r29], r10
    1900:	41 52       	add	1, r10
    1902:	7d 57 15 00 	st.w	r10, 20[r29]
    1906:	3d 57 15 00 	ld.w	20[r29], r10
    190a:	62 52       	cmp	2, r10
    190c:	e7 c5       	ble	1898 <_list_test_OK_3+0xf8>
    190e:	00 00       	nop	
    1910:	1d 18       	mov	r29, sp
    1912:	23 ff 1d 00 	ld.w	28[sp], lp
    1916:	23 ef 19 00 	ld.w	24[sp], r29
    191a:	03 1e 20 00 	addi	32, sp, sp
    191e:	7f 00       	jmp	[lp]

00001920 <_test_print>:
    1920:	54 1a       	add	-12, sp
    1922:	63 ef 09 00 	st.w	r29, 8[sp]
    1926:	03 e8       	mov	sp, r29
    1928:	7d 37 01 00 	st.w	r6, 0[r29]
    192c:	7d 07 05 00 	st.w	r0, 4[r29]
    1930:	c5 15       	br	1958 <_test_print+0x38>
    1932:	20 56 07 fa 	movea	-1529, r0, r10
    1936:	3d 5f 05 00 	ld.w	4[r29], r11
    193a:	3d 67 01 00 	ld.w	0[r29], r12
    193e:	cc 59       	add	r12, r11
    1940:	0b 5f 00 00 	ld.b	0[r11], r11
    1944:	d8 5a       	shl	24, r11
    1946:	b8 5a       	sar	24, r11
    1948:	8b 00       	zxb	r11
    194a:	4a 5f 00 00 	st.b	r11, 0[r10]
    194e:	3d 57 05 00 	ld.w	4[r29], r10
    1952:	41 52       	add	1, r10
    1954:	7d 57 05 00 	st.w	r10, 4[r29]
    1958:	3d 57 05 00 	ld.w	4[r29], r10
    195c:	3d 5f 01 00 	ld.w	0[r29], r11
    1960:	cb 51       	add	r11, r10
    1962:	0a 57 00 00 	ld.b	0[r10], r10
    1966:	d8 52       	shl	24, r10
    1968:	b8 52       	sar	24, r10
    196a:	60 52       	cmp	0, r10
    196c:	ba e5       	bne	1932 <_test_print+0x12>
    196e:	1d 18       	mov	r29, sp
    1970:	23 ef 09 00 	ld.w	8[sp], r29
    1974:	4c 1a       	add	12, sp
    1976:	7f 00       	jmp	[lp]

00001978 <_test_suite>:
    1978:	58 1a       	add	-8, sp
    197a:	63 ff 05 00 	st.w	lp, 4[sp]
    197e:	63 ef 01 00 	st.w	r29, 0[sp]
    1982:	03 e8       	mov	sp, r29
    1984:	2a 06 d0 19 	mov	0x19d0, r10
    1988:	00 00 
    198a:	80 ff 04 00 	jarl	198e <_test_suite+0x16>, lp
    198e:	44 fa       	add	4, lp
    1990:	6a 00       	jmp	[r10]
    1992:	60 52       	cmp	0, r10
    1994:	ca 0d       	bne	19ac <_test_suite+0x34>
    1996:	26 06 74 1d 	mov	0x1d74, r6
    199a:	00 00 
    199c:	2a 06 20 19 	mov	0x1920, r10
    19a0:	00 00 
    19a2:	80 ff 04 00 	jarl	19a6 <_test_suite+0x2e>, lp
    19a6:	44 fa       	add	4, lp
    19a8:	6a 00       	jmp	[r10]
    19aa:	b5 0d       	br	19c0 <_test_suite+0x48>
    19ac:	26 06 8c 1d 	mov	0x1d8c, r6
    19b0:	00 00 
    19b2:	2a 06 20 19 	mov	0x1920, r10
    19b6:	00 00 
    19b8:	80 ff 04 00 	jarl	19bc <_test_suite+0x44>, lp
    19bc:	44 fa       	add	4, lp
    19be:	6a 00       	jmp	[r10]
    19c0:	00 00       	nop	
    19c2:	1d 18       	mov	r29, sp
    19c4:	23 ff 05 00 	ld.w	4[sp], lp
    19c8:	23 ef 01 00 	ld.w	0[sp], r29
    19cc:	48 1a       	add	8, sp
    19ce:	7f 00       	jmp	[lp]

000019d0 <_do_test_add1_1>:
    19d0:	03 1e ec ff 	addi	-20, sp, sp
    19d4:	63 a7 01 00 	st.w	r20, 0[sp]
    19d8:	63 af 05 00 	st.w	r21, 4[sp]
    19dc:	63 b7 09 00 	st.w	r22, 8[sp]
    19e0:	63 bf 0d 00 	st.w	r23, 12[sp]
    19e4:	63 c7 11 00 	st.w	r24, 16[sp]
    19e8:	1f 52       	mov	-1, r10
    19ea:	00 a2       	mov	0, r20
    19ec:	00 aa       	mov	0, r21
    19ee:	00 b2       	mov	0, r22
    19f0:	01 c2       	mov	1, r24
    19f2:	e0 2f 20 00 	ldsr	r0, psw/vmtid
    19f6:	d4 a9       	add	r20, r21
    19f8:	e5 bf 40 00 	stsr	psw/vmtid, r23
    19fc:	f5 b1       	cmp	r21, r22
    19fe:	ca 05       	bne	1a06 <add1_0_test_fail>
    1a00:	f7 c1       	cmp	r23, r24
    1a02:	aa 05       	bne	1a06 <add1_0_test_fail>
    1a04:	00 50       	mov	r0, r10

00001a06 <add1_0_test_fail>:
    1a06:	23 a7 01 00 	ld.w	0[sp], r20
    1a0a:	23 af 05 00 	ld.w	4[sp], r21
    1a0e:	23 b7 09 00 	ld.w	8[sp], r22
    1a12:	23 bf 0d 00 	ld.w	12[sp], r23
    1a16:	23 c7 11 00 	ld.w	16[sp], r24
    1a1a:	03 1e 14 00 	addi	20, sp, sp
    1a1e:	7f 00       	jmp	[lp]
